 DeferredShadingMSAADEBUG

 Timestamp is 5816d8b0 (Mon Oct 31 13:37:52 2016)

 Preferred load address is 00400000

 Start         Length     Name                   Class
 0001:00000000 0000016dH .text$di                CODE
 0001:00000170 00014d3aH .text$mn                CODE
 0001:00014eb0 000007b4H .text$x                 CODE
 0001:00015670 0000003fH .text$yd                CODE
 0002:00000000 00000348H .idata$5                DATA
 0002:00000348 00000004H .CRT$XCA                DATA
 0002:0000034c 00000004H .CRT$XCAA               DATA
 0002:00000350 00000004H .CRT$XCL                DATA
 0002:00000354 00000040H .CRT$XCU                DATA
 0002:00000394 00000004H .CRT$XCZ                DATA
 0002:00000398 00000004H .CRT$XIA                DATA
 0002:0000039c 00000004H .CRT$XIAA               DATA
 0002:000003a0 00000004H .CRT$XIC                DATA
 0002:000003a4 00000004H .CRT$XIY                DATA
 0002:000003a8 00000004H .CRT$XIZ                DATA
 0002:000003b0 00001008H .rdata                  DATA
 0002:000013b8 0000007cH .rdata$debug            DATA
 0002:00001434 000005b4H .rdata$r                DATA
 0002:000019f0 000000b0H .rdata$sxdata           DATA
 0002:00001aa0 00000004H .rtc$IAA                DATA
 0002:00001aa4 00000004H .rtc$IZZ                DATA
 0002:00001aa8 00000004H .rtc$TAA                DATA
 0002:00001aac 00000004H .rtc$TZZ                DATA
 0002:00001ab0 00000d74H .xdata$x                DATA
 0002:00002824 00000000H .edata                  DATA
 0002:00002824 000000c8H .idata$2                DATA
 0002:000028ec 00000014H .idata$3                DATA
 0002:00002900 00000348H .idata$4                DATA
 0002:00002c48 00001720H .idata$6                DATA
 0003:00000000 0000002cH .data                   DATA
 0003:0000002c 00000358H .data$r                 DATA
 0003:00000388 0000056cH .bss                    DATA

  Address         Publics by Value              Rva+Base       Lib:Object

 0000:00000000       ___guard_flags             00000000     <absolute>
 0000:00000000       __except_list              00000000     <absolute>
 0000:00000000       ___guard_fids_count        00000000     <absolute>
 0000:00000000       ___guard_fids_table        00000000     <absolute>
 0000:0000002c       ___safe_se_handler_count   0000002c     <absolute>
 0000:00009876       __ldused                   00009876     <absolute>
 0000:00009876       __fltused                  00009876     <absolute>
 0000:00000000       ___ImageBase               00400000     <linker-defined>
 0001:00000170       ??0DeferredRendererController@@QAE@PAVCFirstPersonCamera@@H@Z 00401170 f   DeferredRenderer.obj
 0001:00000290       ?Render@DeferredRendererController@@UAEXPAUID3D11Device@@PAUID3D11DeviceContext@@PAUID3D11RenderTargetView@@PAUID3D11DepthStencilView@@@Z 00401290 f   DeferredRenderer.obj
 0001:00000bc0       ?DeviceCreated@DeferredRendererController@@UAEJPAUID3D11Device@@@Z 00401bc0 f   DeferredRenderer.obj
 0001:00001650       ?DeviceDestroyed@DeferredRendererController@@UAEXXZ 00402650 f   DeferredRenderer.obj
 0001:00001910       ?BackBufferResized@DeferredRendererController@@UAEXPAUID3D11Device@@PBUDXGI_SURFACE_DESC@@@Z 00402910 f   DeferredRenderer.obj
 0001:000019d0       ?ChangeConfig@DeferredRendererController@@QAEXPAUID3D11Device@@W4ComplexDetectApproach@@W4BRDF@@_N333@Z 004029d0 f   DeferredRenderer.obj
 0001:00001b00       ??$_Allocate@D@std@@YAPADIPAD@Z 00402b00 f i DeferredRenderer.obj
 0001:00001b40       ??$construct@PAUMaterial@@ABQAU1@@?$allocator_traits@V?$allocator@PAUMaterial@@@std@@@std@@SAXAAV?$allocator@PAUMaterial@@@1@PAPAUMaterial@@ABQAU3@@Z 00402b40 f i ObjMeshDX.obj
 0001:00001b40       ??$construct@PAVObjMeshDX@@ABQAV1@@?$allocator_traits@V?$allocator@PAVObjMeshDX@@@std@@@std@@SAXAAV?$allocator@PAVObjMeshDX@@@1@PAPAVObjMeshDX@@ABQAV3@@Z 00402b40 f i DeferredRenderer.obj
 0001:00001b40       ??$construct@HABH@?$allocator_traits@V?$allocator@H@std@@@std@@SAXAAV?$allocator@H@1@PAHABH@Z 00402b40 f i ObjMeshDX.obj
 0001:00001b40       ??$construct@KABK@?$allocator_traits@V?$allocator@K@std@@@std@@SAXAAV?$allocator@K@1@PAKABK@Z 00402b40 f i ObjMeshDX.obj
 0001:00001b60       ??$destroy@PA_W@?$_Wrap_alloc@V?$allocator@_W@std@@@std@@QAEXPAPA_W@Z 00402b60 f i DeferredShadingMSAA.obj
 0001:00001b60       ??$destroy@N@?$_Wrap_alloc@V?$allocator@U?$_List_node@NPAX@std@@@std@@@std@@QAEXPAN@Z 00402b60 f i DeferredShadingMSAA.obj
 0001:00001b60       ??$destroy@UD3DXVECTOR3@@@?$_Wrap_alloc@V?$allocator@UD3DXVECTOR3@@@std@@@std@@QAEXPAUD3DXVECTOR3@@@Z 00402b60 f i ObjMeshDX.obj
 0001:00001b60       ??$destroy@PAD@?$_Wrap_alloc@V?$allocator@D@std@@@std@@QAEXPAPAD@Z 00402b60 f i DeferredRenderer.obj
 0001:00001b60       ??$destroy@PAVIVisualController@@@?$_Wrap_alloc@V?$allocator@U?$_List_node@PAVIVisualController@@PAX@std@@@std@@@std@@QAEXPAPAVIVisualController@@@Z 00402b60 f i DeferredShadingMSAA.obj
 0001:00001b60       ??$destroy@PAU?$_List_node@PAVIVisualController@@PAX@std@@@?$_Wrap_alloc@V?$allocator@U?$_List_node@PAVIVisualController@@PAX@std@@@std@@@std@@QAEXPAPAU?$_List_node@PAVIVisualController@@PAX@1@@Z 00402b60 f i DeferredShadingMSAA.obj
 0001:00001b60       ??$destroy@PAU?$_List_node@NPAX@std@@@?$_Wrap_alloc@V?$allocator@U?$_List_node@NPAX@std@@@std@@@std@@QAEXPAPAU?$_List_node@NPAX@1@@Z 00402b60 f i DeferredShadingMSAA.obj
 0001:00001b60       ??$destroy@UMeshVertex@@@?$_Wrap_alloc@V?$allocator@UMeshVertex@@@std@@@std@@QAEXPAUMeshVertex@@@Z 00402b60 f i ObjMeshDX.obj
 0001:00001b60       ??$destroy@UD3DXVECTOR2@@@?$_Wrap_alloc@V?$allocator@UD3DXVECTOR2@@@std@@@std@@QAEXPAUD3DXVECTOR2@@@Z 00402b60 f i ObjMeshDX.obj
 0001:00001b60       ??$destroy@UMeshFace@@@?$_Wrap_alloc@V?$allocator@UMeshFace@@@std@@@std@@QAEXPAUMeshFace@@@Z 00402b60 f i ObjMeshDX.obj
 0001:00001b80       ??0?$_String_alloc@$0A@U?$_String_base_types@_WV?$allocator@_W@std@@@std@@@std@@QAE@ABV?$allocator@_W@1@@Z 00402b80 f i DeferredShadingMSAA.obj
 0001:00001b80       ??0?$_String_alloc@$0A@U?$_String_base_types@DV?$allocator@D@std@@@std@@@std@@QAE@ABV?$allocator@D@1@@Z 00402b80 f i DeferredRenderer.obj
 0001:00001ba0       ??0?$_Vector_alloc@$0A@U?$_Vec_base_types@PAUCacheEntry@@V?$allocator@PAUCacheEntry@@@std@@@std@@@std@@QAE@ABV?$allocator@PAUCacheEntry@@@1@@Z 00402ba0 f i ObjMeshDX.obj
 0001:00001ba0       ??0?$_Vector_alloc@$0A@U?$_Vec_base_types@UVertexFace@?3??ComputeVertexNormals@ObjMeshDX@@AAEXXZ@V?$allocator@UVertexFace@?3??ComputeVertexNormals@ObjMeshDX@@AAEXXZ@@std@@@std@@@std@@QAE@ABV?$allocator@UVertexFace@?3??ComputeVertexNormals@ObjMeshDX@@AAEXXZ@@1@@Z 00402ba0 f i ObjMeshDX.obj
 0001:00001ba0       ??0?$_Vector_alloc@$0A@U?$_Vec_base_types@KV?$allocator@K@std@@@std@@@std@@QAE@ABV?$allocator@K@1@@Z 00402ba0 f i ObjMeshDX.obj
 0001:00001ba0       ??0?$_Vector_alloc@$0A@U?$_Vec_base_types@PAVObjMeshDX@@V?$allocator@PAVObjMeshDX@@@std@@@std@@@std@@QAE@ABV?$allocator@PAVObjMeshDX@@@1@@Z 00402ba0 f i DeferredRenderer.obj
 0001:00001ba0       ??0?$_Vector_alloc@$0A@U?$_Vec_base_types@PAUMaterial@@V?$allocator@PAUMaterial@@@std@@@std@@@std@@QAE@ABV?$allocator@PAUMaterial@@@1@@Z 00402ba0 f i ObjMeshDX.obj
 0001:00001ba0       ??0?$_Vector_alloc@$0A@U?$_Vec_base_types@UD3DXVECTOR2@@V?$allocator@UD3DXVECTOR2@@@std@@@std@@@std@@QAE@ABV?$allocator@UD3DXVECTOR2@@@1@@Z 00402ba0 f i ObjMeshDX.obj
 0001:00001ba0       ??0?$_Vector_alloc@$0A@U?$_Vec_base_types@HV?$allocator@H@std@@@std@@@std@@QAE@ABV?$allocator@H@1@@Z 00402ba0 f i ObjMeshDX.obj
 0001:00001ba0       ??0?$_Vector_alloc@$0A@U?$_Vec_base_types@UMeshFace@@V?$allocator@UMeshFace@@@std@@@std@@@std@@QAE@ABV?$allocator@UMeshFace@@@1@@Z 00402ba0 f i ObjMeshDX.obj
 0001:00001ba0       ??0?$_Vector_alloc@$0A@U?$_Vec_base_types@UMeshVertex@@V?$allocator@UMeshVertex@@@std@@@std@@@std@@QAE@ABV?$allocator@UMeshVertex@@@1@@Z 00402ba0 f i ObjMeshDX.obj
 0001:00001ba0       ??0?$_Vector_alloc@$0A@U?$_Vec_base_types@UD3DXVECTOR3@@V?$allocator@UD3DXVECTOR3@@@std@@@std@@@std@@QAE@ABV?$allocator@UD3DXVECTOR3@@@1@@Z 00402ba0 f i ObjMeshDX.obj
 0001:00001bc0       ??0?$allocator@K@std@@QAE@XZ 00402bc0 f i ObjMeshDX.obj
 0001:00001bc0       ??0?$allocator@UMeshFace@@@std@@QAE@XZ 00402bc0 f i ObjMeshDX.obj
 0001:00001bc0       ??0D3DXVECTOR2@@QAE@XZ     00402bc0 f i ObjMeshDX.obj
 0001:00001bc0       ??0?$allocator@_W@std@@QAE@XZ 00402bc0 f i DeferredShadingMSAA.obj
 0001:00001bc0       ??0?$allocator@N@std@@QAE@XZ 00402bc0 f i DeferredShadingMSAA.obj
 0001:00001bc0       ??0?$allocator@PAVObjMeshDX@@@std@@QAE@XZ 00402bc0 f i DeferredRenderer.obj
 0001:00001bc0       ??0D3DXVECTOR3@@QAE@XZ     00402bc0 f i ObjMeshDX.obj
 0001:00001bc0       ??0?$allocator@UVertexFace@?3??ComputeVertexNormals@ObjMeshDX@@AAEXXZ@@std@@QAE@XZ 00402bc0 f i ObjMeshDX.obj
 0001:00001bc0       ??0D3DXMATRIX@@QAE@XZ      00402bc0 f i DeferredRenderer.obj
 0001:00001bc0       ??0?$allocator@UMeshVertex@@@std@@QAE@XZ 00402bc0 f i ObjMeshDX.obj
 0001:00001bc0       ??0?$allocator@U?$_List_node@NPAX@std@@@std@@QAE@XZ 00402bc0 f i DeferredShadingMSAA.obj
 0001:00001bc0       ??0?$allocator@PAVIVisualController@@@std@@QAE@XZ 00402bc0 f i DeferredShadingMSAA.obj
 0001:00001bc0       ??0?$allocator@D@std@@QAE@XZ 00402bc0 f i DeferredRenderer.obj
 0001:00001bc0       ??0?$allocator@UD3DXVECTOR3@@@std@@QAE@XZ 00402bc0 f i ObjMeshDX.obj
 0001:00001bc0       ??0D3DXQUATERNION@@QAE@XZ  00402bc0 f i nvidiautilsDEBUG:Camera.obj
 0001:00001bc0       ??0?$allocator@PAUMaterial@@@std@@QAE@XZ 00402bc0 f i ObjMeshDX.obj
 0001:00001bc0       ??0?$allocator@UD3DXVECTOR2@@@std@@QAE@XZ 00402bc0 f i ObjMeshDX.obj
 0001:00001bc0       ??0?$allocator@U?$_List_node@PAVIVisualController@@PAX@std@@@std@@QAE@XZ 00402bc0 f i DeferredShadingMSAA.obj
 0001:00001bc0       ??0?$allocator@H@std@@QAE@XZ 00402bc0 f i ObjMeshDX.obj
 0001:00001bc0       ??0?$allocator@PAUCacheEntry@@@std@@QAE@XZ 00402bc0 f i ObjMeshDX.obj
 0001:00001bd0       ??0?$basic_string@DU?$char_traits@D@std@@V?$allocator@D@2@@std@@QAE@PBD@Z 00402bd0 f i DeferredRenderer.obj
 0001:00001c10       ??0IVisualController@@QAE@XZ 00402c10 f i DeferredRenderer.obj
 0001:00001c30       ??0SimpleTexture@@QAE@XZ   00402c30 f i DeferredRenderer.obj
 0001:00001c70       ??0_Generic_error_category@std@@QAE@XZ 00402c70 f i DeferredRenderer.obj
 0001:00001c90       ??0_Iostream_error_category@std@@QAE@XZ 00402c90 f i DeferredRenderer.obj
 0001:00001cb0       ??0_System_error_category@std@@QAE@XZ 00402cb0 f i DeferredRenderer.obj
 0001:00001cd0       ??0error_category@std@@QAE@XZ 00402cd0 f i DeferredRenderer.obj
 0001:00001cf0       ??0error_condition@std@@QAE@HABVerror_category@1@@Z 00402cf0 f i DeferredRenderer.obj
 0001:00001cf0       ??0_Fac_node@std@@QAE@PAU01@PAV_Facet_base@1@@Z 00402cf0 f i msvcprtd:locale0_implib.obj
 0001:00001d20       ??1_Generic_error_category@std@@UAE@XZ 00402d20 f i DeferredRenderer.obj
 0001:00001d40       ??1_System_error_category@std@@UAE@XZ 00402d40 f i DeferredRenderer.obj
 0001:00001d40       ??1_Iostream_error_category@std@@UAE@XZ 00402d40 f i DeferredRenderer.obj
 0001:00001d60       ??1error_category@std@@UAE@XZ 00402d60 f i DeferredRenderer.obj
 0001:00001d80       ??2@YAPAXIPAX@Z            00402d80 f i DeferredRenderer.obj
 0001:00001d90       ??8error_category@std@@QBE_NABV01@@Z 00402d90 f i DeferredRenderer.obj
 0001:00001dc0       ??8error_condition@std@@QBE_NABV01@@Z 00402dc0 f i DeferredRenderer.obj
 0001:00001e20       ??DD3DXMATRIX@@QBE?AU0@ABU0@@Z 00402e20 f i DeferredRenderer.obj
 0001:00001e70       ??_E_Generic_error_category@std@@UAEPAXI@Z 00402e70 f i DeferredRenderer.obj
 0001:00001e70       ??_G_Generic_error_category@std@@UAEPAXI@Z 00402e70 f i DeferredRenderer.obj
 0001:00001ea0       ??_E_Iostream_error_category@std@@UAEPAXI@Z 00402ea0 f i DeferredRenderer.obj
 0001:00001ea0       ??_G_Iostream_error_category@std@@UAEPAXI@Z 00402ea0 f i DeferredRenderer.obj
 0001:00001ea0       ??_E_System_error_category@std@@UAEPAXI@Z 00402ea0 f i DeferredRenderer.obj
 0001:00001ea0       ??_G_System_error_category@std@@UAEPAXI@Z 00402ea0 f i DeferredRenderer.obj
 0001:00001ed0       ??_Eerror_category@std@@UAEPAXI@Z 00402ed0 f i DeferredRenderer.obj
 0001:00001ed0       ??_Gerror_category@std@@UAEPAXI@Z 00402ed0 f i DeferredRenderer.obj
 0001:00001f00       ?CompileFromFile@DirectXUtil@@YAJPA_WPBD1PAPAUID3D10Blob@@PBU_D3D_SHADER_MACRO@@@Z 00402f00 f i DeferredRenderer.obj
 0001:00001fb0       ?DeviceCreated@IVisualController@@UAEJPAUID3D11Device@@@Z 00402fb0 f i DeferredRenderer.obj
 0001:00001fc0       ?DeviceDestroyed@IVisualController@@UAEXXZ 00402fc0 f i DeferredRenderer.obj
 0001:00001fd0       ?DisableController@IVisualController@@UAEXXZ 00402fd0 f i DeferredRenderer.obj
 0001:00001ff0       ?EnableController@IVisualController@@UAEXXZ 00402ff0 f i DeferredRenderer.obj
 0001:00002010       ?GetProjMatrix@CBaseCamera@@QBEPBUD3DXMATRIX@@XZ 00403010 f i DeferredRenderer.obj
 0001:00002030       ?GetRenderTargetView@SimpleTexture@@QBEPAUID3D11RenderTargetView@@XZ 00403030 f i DeferredRenderer.obj
 0001:00002030       ?GetDevice@DeviceManager@@QAEPAUID3D11Device@@XZ 00403030 f i DeferredShadingMSAA.obj
 0001:00002050       ?GetViewMatrix@CBaseCamera@@QBEPBUD3DXMATRIX@@XZ 00403050 f i DeferredRenderer.obj
 0001:00002070       ?GetWorldAhead@CFirstPersonCamera@@QBEPBUD3DXVECTOR3@@XZ 00403070 f i DeferredRenderer.obj
 0001:00002090       ?InitTexture2D@DirectXUtil@@YAJPAUID3D11Device@@W4DXGI_FORMAT@@IIIPAPAUID3D11Texture2D@@PAPAUID3D11ShaderResourceView@@PAPAUID3D11RenderTargetView@@PAPAUID3D11DepthStencilView@@@Z 00403090 f i DeferredRenderer.obj
 0001:000022c0       ?Initialize@SimpleTexture@@QAEJPAUID3D11Device@@W4DXGI_FORMAT@@III_N22@Z 004032c0 f i DeferredRenderer.obj
 0001:00002370       ?MsgProc@IVisualController@@UAEJPAUHWND__@@IIJ@Z 00403370 f i DeferredRenderer.obj
 0001:00002390       ?Release@SimpleTexture@@QAEXXZ 00403390 f i DeferredRenderer.obj
 0001:00002440       ?Render@IVisualController@@UAEXPAUID3D11Device@@PAUID3D11DeviceContext@@PAUID3D11RenderTargetView@@PAUID3D11DepthStencilView@@@Z 00403440 f i DeferredRenderer.obj
 0001:00002450       ?_Copy@?$basic_string@DU?$char_traits@D@std@@V?$allocator@D@2@@std@@QAEXII@Z 00403450 f i DeferredRenderer.obj
 0001:00002610       ?_Eos@?$basic_string@DU?$char_traits@D@std@@V?$allocator@D@2@@std@@QAEXI@Z 00403610 f i DeferredRenderer.obj
 0001:00002650       ?_Grow@?$basic_string@DU?$char_traits@D@std@@V?$allocator@D@2@@std@@QAE_NI_N@Z 00403650 f i DeferredRenderer.obj
 0001:00002700       ?_Inside@?$basic_string@DU?$char_traits@D@std@@V?$allocator@D@2@@std@@QAE_NPBD@Z 00403700 f i DeferredRenderer.obj
 0001:00002740       ?_Myptr@?$_String_val@U?$_Simple_types@D@std@@@std@@QAEPADXZ 00403740 f i DeferredRenderer.obj
 0001:00002740       ?_Myptr@?$_String_val@U?$_Simple_types@D@std@@@std@@QBEPBDXZ 00403740 f i DeferredRenderer.obj
 0001:00002780       ?_Reserve@?$vector@KV?$allocator@K@std@@@std@@IAEXI@Z 00403780 f i ObjMeshDX.obj
 0001:00002780       ?_Reserve@?$vector@PAUCacheEntry@@V?$allocator@PAUCacheEntry@@@std@@@std@@IAEXI@Z 00403780 f i ObjMeshDX.obj
 0001:00002780       ?_Reserve@?$vector@PAVObjMeshDX@@V?$allocator@PAVObjMeshDX@@@std@@@std@@IAEXI@Z 00403780 f i DeferredRenderer.obj
 0001:00002780       ?_Reserve@?$vector@PAUMaterial@@V?$allocator@PAUMaterial@@@std@@@std@@IAEXI@Z 00403780 f i ObjMeshDX.obj
 0001:00002780       ?_Reserve@?$vector@HV?$allocator@H@std@@@std@@IAEXI@Z 00403780 f i ObjMeshDX.obj
 0001:000027e0       ?_Tidy@?$basic_string@DU?$char_traits@D@std@@V?$allocator@D@2@@std@@QAEX_NI@Z 004037e0 f i DeferredRenderer.obj
 0001:00002880       ?_Xran@?$basic_string@DU?$char_traits@D@std@@V?$allocator@D@2@@std@@QBEXXZ 00403880 f i DeferredRenderer.obj
 0001:00002880       ?_Xran@?$basic_string@_WU?$char_traits@_W@std@@V?$allocator@_W@2@@std@@QBEXXZ 00403880 f i DeferredShadingMSAA.obj
 0001:000028a0       ?allocate@?$_Wrap_alloc@V?$allocator@D@std@@@std@@QAEPADI@Z 004038a0 f i DeferredRenderer.obj
 0001:000028c0       ?allocate@?$allocator@D@std@@QAEPADI@Z 004038c0 f i DeferredRenderer.obj
 0001:000028e0       ?assign@?$basic_string@DU?$char_traits@D@std@@V?$allocator@D@2@@std@@QAEAAV12@ABV12@II@Z 004038e0 f i DeferredRenderer.obj
 0001:00002990       ?assign@?$basic_string@DU?$char_traits@D@std@@V?$allocator@D@2@@std@@QAEAAV12@PBD@Z 00403990 f i DeferredRenderer.obj
 0001:000029c0       ?assign@?$basic_string@DU?$char_traits@D@std@@V?$allocator@D@2@@std@@QAEAAV12@PBDI@Z 004039c0 f i DeferredRenderer.obj
 0001:00002a40       ?assign@?$char_traits@D@std@@SAXAADABD@Z 00403a40 f i DeferredRenderer.obj
 0001:00002a50       ?GetShaderResourceView@SimpleTexture@@QBEPAUID3D11ShaderResourceView@@XZ 00403a50 f i DeferredRenderer.obj
 0001:00002a50       ?category@error_code@std@@QBEABVerror_category@2@XZ 00403a50 f i DeferredRenderer.obj
 0001:00002a50       ?category@error_condition@std@@QBEABVerror_category@2@XZ 00403a50 f i DeferredRenderer.obj
 0001:00002a50       ?size@?$list@NV?$allocator@N@std@@@std@@QBEIXZ 00403a50 f i nvidiautilsDEBUG:DeviceManager.obj
 0001:00002a70       ?copy@?$char_traits@D@std@@SAPADPADPBDI@Z 00403a70 f i DeferredRenderer.obj
 0001:00002aa0       ?default_error_condition@_System_error_category@std@@UBE?AVerror_condition@2@H@Z 00403aa0 f i DeferredRenderer.obj
 0001:00002af0       ?default_error_condition@error_category@std@@UBE?AVerror_condition@2@H@Z 00403af0 f i DeferredRenderer.obj
 0001:00002b10       ?equivalent@error_category@std@@UBE_NABVerror_code@2@H@Z 00403b10 f i DeferredRenderer.obj
 0001:00002b60       ?equivalent@error_category@std@@UBE_NHABVerror_condition@2@@Z 00403b60 f i DeferredRenderer.obj
 0001:00002b90       ?erase@?$basic_string@DU?$char_traits@D@std@@V?$allocator@D@2@@std@@QAEAAV12@I@Z 00403b90 f i DeferredRenderer.obj
 0001:00002bc0       ?erase@?$basic_string@DU?$char_traits@D@std@@V?$allocator@D@2@@std@@QAEAAV12@II@Z 00403bc0 f i DeferredRenderer.obj
 0001:00002c50       ?generic_category@std@@YAABVerror_category@1@XZ 00403c50 f i DeferredRenderer.obj
 0001:00002c60       ?length@?$char_traits@D@std@@SAIPBD@Z 00403c60 f i DeferredRenderer.obj
 0001:00002cb0       ?max_size@?$_Wrap_alloc@V?$allocator@D@std@@@std@@QBEIXZ 00403cb0 f i DeferredRenderer.obj
 0001:00002cd0       ?max_size@?$allocator@D@std@@QBEIXZ 00403cd0 f i DeferredRenderer.obj
 0001:00002ce0       ?max_size@?$allocator_traits@V?$allocator@D@std@@@std@@SAIABV?$allocator@D@2@@Z 00403ce0 f i DeferredRenderer.obj
 0001:00002cf0       ?max_size@?$basic_string@DU?$char_traits@D@std@@V?$allocator@D@2@@std@@QBEIXZ 00403cf0 f i DeferredRenderer.obj
 0001:00002d30       ?message@_Generic_error_category@std@@UBE?AV?$basic_string@DU?$char_traits@D@std@@V?$allocator@D@2@@2@H@Z 00403d30 f i DeferredRenderer.obj
 0001:00002d90       ?message@_Iostream_error_category@std@@UBE?AV?$basic_string@DU?$char_traits@D@std@@V?$allocator@D@2@@2@H@Z 00403d90 f i DeferredRenderer.obj
 0001:00002df0       ?message@_System_error_category@std@@UBE?AV?$basic_string@DU?$char_traits@D@std@@V?$allocator@D@2@@2@H@Z 00403df0 f i DeferredRenderer.obj
 0001:00002e50       ?move@?$char_traits@D@std@@SAPADPADPBDI@Z 00403e50 f i DeferredRenderer.obj
 0001:00002e90       ?name@_Generic_error_category@std@@UBEPBDXZ 00403e90 f i DeferredRenderer.obj
 0001:00002ea0       ?name@_Iostream_error_category@std@@UBEPBDXZ 00403ea0 f i DeferredRenderer.obj
 0001:00002eb0       ?name@_System_error_category@std@@UBEPBDXZ 00403eb0 f i DeferredRenderer.obj
 0001:00002ec0       ?system_category@std@@YAABVerror_category@1@XZ 00403ec0 f i DeferredRenderer.obj
 0001:00002ed0       ?GetTexture@SimpleTexture@@QBEPAUID3D11Texture2D@@XZ 00403ed0 f i DeferredRenderer.obj
 0001:00002ed0       ?_Unchecked@?$_Vector_const_iterator@V?$_Vector_val@U?$_Simple_types@H@std@@@std@@@std@@QBEPBHXZ 00403ed0 f i ObjMeshDX.obj
 0001:00002ed0       ?data@?$vector@UMeshVertex@@V?$allocator@UMeshVertex@@@std@@@std@@QAEPAUMeshVertex@@XZ 00403ed0 f i ObjMeshDX.obj
 0001:00002ed0       ?value@error_code@std@@QBEHXZ 00403ed0 f i DeferredRenderer.obj
 0001:00002ed0       ??D?$_String_const_iterator@V?$_String_val@U?$_Simple_types@D@std@@@std@@@std@@QBEABDXZ 00403ed0 f i ObjMeshDX.obj
 0001:00002ed0       ?_Mynode@?$_List_unchecked_const_iterator@V?$_List_val@U?$_List_simple_types@PAVIVisualController@@@std@@@std@@U_Iterator_base0@2@@std@@QBEPAU?$_List_node@PAVIVisualController@@PAX@2@XZ 00403ed0 f i nvidiautilsDEBUG:DeviceManager.obj
 0001:00002ed0       ?_Mynode@?$_List_unchecked_const_iterator@V?$_List_val@U?$_List_simple_types@N@std@@@std@@U_Iterator_base0@2@@std@@QBEPAU?$_List_node@NPAX@2@XZ 00403ed0 f i nvidiautilsDEBUG:DeviceManager.obj
 0001:00002ed0       ?data@?$vector@KV?$allocator@K@std@@@std@@QAEPAKXZ 00403ed0 f i ObjMeshDX.obj
 0001:00002ed0       ?value@error_condition@std@@QBEHXZ 00403ed0 f i DeferredRenderer.obj
 0001:00002ee0       _wWinMain@16               00403ee0 f   DeferredShadingMSAA.obj
 0001:00003070       ??$_Allocate@_W@std@@YAPA_WIPA_W@Z 00404070 f i DeferredShadingMSAA.obj
 0001:000030b0       ??$construct@PAU?$_List_node@NPAX@std@@AAPAU12@@?$allocator@U?$_List_node@NPAX@std@@@std@@QAEXPAPAU?$_List_node@NPAX@1@AAPAU21@@Z 004040b0 f i DeferredShadingMSAA.obj
 0001:000030b0       ??$construct@PADAAPAD@?$allocator@D@std@@QAEXPAPADAAPAD@Z 004040b0 f i DeferredRenderer.obj
 0001:000030b0       ??$construct@PA_WAAPA_W@?$allocator@_W@std@@QAEXPAPA_WAAPA_W@Z 004040b0 f i DeferredShadingMSAA.obj
 0001:000030b0       ??$construct@KAAK@?$allocator@K@std@@QAEXPAKAAK@Z 004040b0 f i ObjMeshDX.obj
 0001:000030b0       ??$construct@PAU?$_List_node@PAVIVisualController@@PAX@std@@AAPAU12@@?$allocator@U?$_List_node@PAVIVisualController@@PAX@std@@@std@@QAEXPAPAU?$_List_node@PAVIVisualController@@PAX@1@AAPAU21@@Z 004040b0 f i DeferredShadingMSAA.obj
 0001:000030b0       ??$construct@PAUMaterial@@AAPAU1@@?$allocator@PAUMaterial@@@std@@QAEXPAPAUMaterial@@AAPAU2@@Z 004040b0 f i ObjMeshDX.obj
 0001:000030b0       ??$construct@KK@?$allocator@K@std@@QAEXPAK$$QAK@Z 004040b0 f i ObjMeshDX.obj
 0001:000030b0       ??$construct@PAVObjMeshDX@@AAPAV1@@?$allocator@PAVObjMeshDX@@@std@@QAEXPAPAVObjMeshDX@@AAPAV2@@Z 004040b0 f i DeferredRenderer.obj
 0001:000030b0       ??$construct@PAVIVisualController@@ABQAV1@@?$allocator@U?$_List_node@PAVIVisualController@@PAX@std@@@std@@QAEXPAPAVIVisualController@@ABQAV2@@Z 004040b0 f i nvidiautilsDEBUG:DeviceManager.obj
 0001:000030b0       ??$construct@PAUCacheEntry@@PAU1@@?$allocator@PAUCacheEntry@@@std@@QAEXPAPAUCacheEntry@@$$QAPAU2@@Z 004040b0 f i ObjMeshDX.obj
 0001:000030b0       ??$construct@HAAH@?$allocator@H@std@@QAEXPAHAAH@Z 004040b0 f i ObjMeshDX.obj
 0001:00003140       ??$construct@PAU?$_List_node@PAVIVisualController@@PAX@std@@AAPAU12@@?$allocator_traits@V?$allocator@U?$_List_node@PAVIVisualController@@PAX@std@@@std@@@std@@SAXAAV?$allocator@U?$_List_node@PAVIVisualController@@PAX@std@@@1@PAPAU?$_List_node@PAVIVisualController@@PAX@1@AAPAU31@@Z 00404140 f i DeferredShadingMSAA.obj
 0001:00003140       ??$construct@PAUCacheEntry@@PAU1@@?$allocator_traits@V?$allocator@PAUCacheEntry@@@std@@@std@@SAXAAV?$allocator@PAUCacheEntry@@@1@PAPAUCacheEntry@@$$QAPAU3@@Z 00404140 f i ObjMeshDX.obj
 0001:00003140       ??$construct@PAU?$_List_node@NPAX@std@@AAPAU12@@?$allocator_traits@V?$allocator@U?$_List_node@NPAX@std@@@std@@@std@@SAXAAV?$allocator@U?$_List_node@NPAX@std@@@1@PAPAU?$_List_node@NPAX@1@AAPAU31@@Z 00404140 f i DeferredShadingMSAA.obj
 0001:00003140       ??$construct@PA_WAAPA_W@?$allocator_traits@V?$allocator@_W@std@@@std@@SAXAAV?$allocator@_W@1@PAPA_WAAPA_W@Z 00404140 f i DeferredShadingMSAA.obj
 0001:00003140       ??$construct@PAVIVisualController@@ABQAV1@@?$allocator_traits@V?$allocator@U?$_List_node@PAVIVisualController@@PAX@std@@@std@@@std@@SAXAAV?$allocator@U?$_List_node@PAVIVisualController@@PAX@std@@@1@PAPAVIVisualController@@ABQAV3@@Z 00404140 f i nvidiautilsDEBUG:DeviceManager.obj
 0001:00003140       ??$construct@KAAK@?$allocator_traits@V?$allocator@K@std@@@std@@SAXAAV?$allocator@K@1@PAKAAK@Z 00404140 f i ObjMeshDX.obj
 0001:00003140       ??$construct@PAUMaterial@@AAPAU1@@?$allocator_traits@V?$allocator@PAUMaterial@@@std@@@std@@SAXAAV?$allocator@PAUMaterial@@@1@PAPAUMaterial@@AAPAU3@@Z 00404140 f i ObjMeshDX.obj
 0001:00003140       ??$construct@PAVObjMeshDX@@AAPAV1@@?$allocator_traits@V?$allocator@PAVObjMeshDX@@@std@@@std@@SAXAAV?$allocator@PAVObjMeshDX@@@1@PAPAVObjMeshDX@@AAPAV3@@Z 00404140 f i DeferredRenderer.obj
 0001:00003140       ??$construct@KK@?$allocator_traits@V?$allocator@K@std@@@std@@SAXAAV?$allocator@K@1@PAK$$QAK@Z 00404140 f i ObjMeshDX.obj
 0001:00003140       ??$construct@HAAH@?$allocator_traits@V?$allocator@H@std@@@std@@SAXAAV?$allocator@H@1@PAHAAH@Z 00404140 f i ObjMeshDX.obj
 0001:00003140       ??$construct@PADAAPAD@?$allocator_traits@V?$allocator@D@std@@@std@@SAXAAV?$allocator@D@1@PAPADAAPAD@Z 00404140 f i DeferredRenderer.obj
 0001:00003160       ??$destroy@UMeshVertex@@@?$allocator@UMeshVertex@@@std@@QAEXPAUMeshVertex@@@Z 00404160 f i ObjMeshDX.obj
 0001:00003160       ??$destroy@PA_W@?$allocator@_W@std@@QAEXPAPA_W@Z 00404160 f i DeferredShadingMSAA.obj
 0001:00003160       ??$destroy@UD3DXVECTOR2@@@?$allocator@UD3DXVECTOR2@@@std@@QAEXPAUD3DXVECTOR2@@@Z 00404160 f i ObjMeshDX.obj
 0001:00003160       ??$destroy@UD3DXVECTOR3@@@?$allocator@UD3DXVECTOR3@@@std@@QAEXPAUD3DXVECTOR3@@@Z 00404160 f i ObjMeshDX.obj
 0001:00003160       ??$destroy@PAU?$_List_node@NPAX@std@@@?$allocator@U?$_List_node@NPAX@std@@@std@@QAEXPAPAU?$_List_node@NPAX@1@@Z 00404160 f i DeferredShadingMSAA.obj
 0001:00003160       ??$destroy@N@?$allocator@U?$_List_node@NPAX@std@@@std@@QAEXPAN@Z 00404160 f i DeferredShadingMSAA.obj
 0001:00003160       ??$destroy@PAVIVisualController@@@?$allocator@U?$_List_node@PAVIVisualController@@PAX@std@@@std@@QAEXPAPAVIVisualController@@@Z 00404160 f i DeferredShadingMSAA.obj
 0001:00003160       ??$destroy@PAD@?$allocator@D@std@@QAEXPAPAD@Z 00404160 f i DeferredRenderer.obj
 0001:00003160       ??$destroy@UMeshFace@@@?$allocator@UMeshFace@@@std@@QAEXPAUMeshFace@@@Z 00404160 f i ObjMeshDX.obj
 0001:00003160       ??$destroy@PAU?$_List_node@PAVIVisualController@@PAX@std@@@?$allocator@U?$_List_node@PAVIVisualController@@PAX@std@@@std@@QAEXPAPAU?$_List_node@PAVIVisualController@@PAX@1@@Z 00404160 f i DeferredShadingMSAA.obj
 0001:00003160       ?_Adopt@_Iterator_base0@std@@QAEXPBX@Z 00404160 f i ObjMeshDX.obj
 0001:00003170       ??$sprintf_s@$0BAA@@@YAHAAY0BAA@DPBDZZ 00404170 f i DeferredShadingMSAA.obj
 0001:000031a0       ??0?$_List_alloc@$0A@U?$_List_base_types@NV?$allocator@N@std@@@std@@@std@@QAE@ABV?$allocator@N@1@@Z 004041a0 f i DeferredShadingMSAA.obj
 0001:000031d0       ??0?$_List_alloc@$0A@U?$_List_base_types@PAVIVisualController@@V?$allocator@PAVIVisualController@@@std@@@std@@@std@@QAE@ABV?$allocator@PAVIVisualController@@@1@@Z 004041d0 f i DeferredShadingMSAA.obj
 0001:00003200       ??0?$_List_buy@NV?$allocator@N@std@@@std@@QAE@ABV?$allocator@N@1@@Z 00404200 f i DeferredShadingMSAA.obj
 0001:00003220       ??0?$_List_buy@PAVIVisualController@@V?$allocator@PAVIVisualController@@@std@@@std@@QAE@ABV?$allocator@PAVIVisualController@@@1@@Z 00404220 f i DeferredShadingMSAA.obj
 0001:00003240       ??0?$_List_val@U?$_List_simple_types@PAVIVisualController@@@std@@@std@@QAE@XZ 00404240 f i DeferredShadingMSAA.obj
 0001:00003240       ??0?$_List_val@U?$_List_simple_types@N@std@@@std@@QAE@XZ 00404240 f i DeferredShadingMSAA.obj
 0001:00003270       ??0?$_String_val@U?$_Simple_types@D@std@@@std@@QAE@XZ 00404270 f i DeferredRenderer.obj
 0001:00003270       ??0?$_String_val@U?$_Simple_types@_W@std@@@std@@QAE@XZ 00404270 f i DeferredShadingMSAA.obj
 0001:000032a0       ??0?$basic_string@_WU?$char_traits@_W@std@@V?$allocator@_W@2@@std@@QAE@PB_W@Z 004042a0 f i DeferredShadingMSAA.obj
 0001:000032e0       ??0?$list@NV?$allocator@N@std@@@std@@QAE@XZ 004042e0 f i DeferredShadingMSAA.obj
 0001:00003310       ??0?$list@PAVIVisualController@@V?$allocator@PAVIVisualController@@@std@@@std@@QAE@XZ 00404310 f i DeferredShadingMSAA.obj
 0001:00003340       ??0AntTweakBarVisualController@@QAE@XZ 00404340 f i DeferredShadingMSAA.obj
 0001:00003360       ??0D3DXVECTOR3@@QAE@MMM@Z  00404360 f i DeferredShadingMSAA.obj
 0001:000033a0       ??0DeviceCreationParameters@@QAE@XZ 004043a0 f i DeferredShadingMSAA.obj
 0001:00003440       ??0DeviceManager@@QAE@XZ   00404440 f i DeferredShadingMSAA.obj
 0001:00003560       ??1?$_List_alloc@$0A@U?$_List_base_types@NV?$allocator@N@std@@@std@@@std@@QAE@XZ 00404560 f i DeferredShadingMSAA.obj
 0001:00003560       ??1?$_List_alloc@$0A@U?$_List_base_types@PAVIVisualController@@V?$allocator@PAVIVisualController@@@std@@@std@@@std@@QAE@XZ 00404560 f i DeferredShadingMSAA.obj
 0001:00003580       ??1?$_List_buy@PAVIVisualController@@V?$allocator@PAVIVisualController@@@std@@@std@@QAE@XZ 00404580 f i DeferredShadingMSAA.obj
 0001:00003580       ??1?$_List_buy@NV?$allocator@N@std@@@std@@QAE@XZ 00404580 f i DeferredShadingMSAA.obj
 0001:000035a0       ??1?$basic_string@_WU?$char_traits@_W@std@@V?$allocator@_W@2@@std@@QAE@XZ 004045a0 f i DeferredShadingMSAA.obj
 0001:000035c0       ??1?$list@PAVIVisualController@@V?$allocator@PAVIVisualController@@@std@@@std@@QAE@XZ 004045c0 f i DeferredShadingMSAA.obj
 0001:000035c0       ??1?$list@NV?$allocator@N@std@@@std@@QAE@XZ 004045c0 f i DeferredShadingMSAA.obj
 0001:000035e0       ??1DeferredRendererController@@QAE@XZ 004045e0 f i DeferredShadingMSAA.obj
 0001:00003600       ??1DeviceManager@@UAE@XZ   00404600 f i DeferredShadingMSAA.obj
 0001:00003690       ??_GDeviceManager@@UAEPAXI@Z 00404690 f i DeferredShadingMSAA.obj
 0001:00003690       ??_EDeviceManager@@UAEPAXI@Z 00404690 f i DeferredShadingMSAA.obj
 0001:000036c0       ?Animate@AntTweakBarVisualController@@MAEXN@Z 004046c0 f i DeferredShadingMSAA.obj
 0001:000036f0       ?BackBufferResized@AntTweakBarVisualController@@MAEXPAUID3D11Device@@PBUDXGI_SURFACE_DESC@@@Z 004046f0 f i DeferredShadingMSAA.obj
 0001:000037b0       ?DeviceCreated@AntTweakBarVisualController@@MAEJPAUID3D11Device@@@Z 004047b0 f i DeferredShadingMSAA.obj
 0001:000038b0       ?DeviceDestroyed@AntTweakBarVisualController@@MAEXXZ 004048b0 f i DeferredShadingMSAA.obj
 0001:000038d0       ?GetAverageFrameTime@DeviceManager@@QAENXZ 004048d0 f i DeferredShadingMSAA.obj
 0001:000038f0       ?GetMSAASampleCount@DeferredRendererController@@QBEHXZ 004048f0 f i DeferredShadingMSAA.obj
 0001:00003910       ?InitDialogs@AntTweakBarVisualController@@IAEXXZ 00404910 f i DeferredShadingMSAA.obj
 0001:00003a40       ?MsgProc@AntTweakBarVisualController@@MAEJPAUHWND__@@IIJ@Z 00404a40 f i DeferredShadingMSAA.obj
 0001:00003b60       ?Render@AntTweakBarVisualController@@MAEXPAUID3D11Device@@PAUID3D11DeviceContext@@PAUID3D11RenderTargetView@@PAUID3D11DepthStencilView@@@Z 00404b60 f i DeferredShadingMSAA.obj
 0001:00003b90       ?RenderText@AntTweakBarVisualController@@IAEXXZ 00404b90 f i DeferredShadingMSAA.obj
 0001:00003c60       ?SetScalers@CBaseCamera@@QAEXMM@Z 00404c60 f i DeferredShadingMSAA.obj
 0001:00003c90       ?_Buyheadnode@?$_List_alloc@$0A@U?$_List_base_types@NV?$allocator@N@std@@@std@@@std@@QAEPAU?$_List_node@NPAX@2@XZ 00404c90 f i DeferredShadingMSAA.obj
 0001:00003cb0       ?_Buyheadnode@?$_List_alloc@$0A@U?$_List_base_types@PAVIVisualController@@V?$allocator@PAVIVisualController@@@std@@@std@@@std@@QAEPAU?$_List_node@PAVIVisualController@@PAX@2@XZ 00404cb0 f i DeferredShadingMSAA.obj
 0001:00003cd0       ?_Buynode0@?$_List_alloc@$0A@U?$_List_base_types@NV?$allocator@N@std@@@std@@@std@@QAEPAU?$_List_node@NPAX@2@PAU32@0@Z 00404cd0 f i DeferredShadingMSAA.obj
 0001:00003df0       ?_Buynode0@?$_List_alloc@$0A@U?$_List_base_types@PAVIVisualController@@V?$allocator@PAVIVisualController@@@std@@@std@@@std@@QAEPAU?$_List_node@PAVIVisualController@@PAX@2@PAU32@0@Z 00404df0 f i DeferredShadingMSAA.obj
 0001:00003f10       ?_Copy@?$basic_string@_WU?$char_traits@_W@std@@V?$allocator@_W@2@@std@@QAEXII@Z 00404f10 f i DeferredShadingMSAA.obj
 0001:000040d0       ?_Eos@?$basic_string@_WU?$char_traits@_W@std@@V?$allocator@_W@2@@std@@QAEXI@Z 004050d0 f i DeferredShadingMSAA.obj
 0001:00004110       ?_Freeheadnode@?$_List_alloc@$0A@U?$_List_base_types@NV?$allocator@N@std@@@std@@@std@@QAEXPAU?$_List_node@NPAX@2@@Z 00405110 f i DeferredShadingMSAA.obj
 0001:00004110       ?_Freeheadnode@?$_List_alloc@$0A@U?$_List_base_types@PAVIVisualController@@V?$allocator@PAVIVisualController@@@std@@@std@@@std@@QAEXPAU?$_List_node@PAVIVisualController@@PAX@2@@Z 00405110 f i DeferredShadingMSAA.obj
 0001:00004190       ?_Freenode@?$_List_buy@PAVIVisualController@@V?$allocator@PAVIVisualController@@@std@@@std@@QAEXPAU?$_List_node@PAVIVisualController@@PAX@2@@Z 00405190 f i DeferredShadingMSAA.obj
 0001:00004190       ?_Freenode@?$_List_buy@NV?$allocator@N@std@@@std@@QAEXPAU?$_List_node@NPAX@2@@Z 00405190 f i DeferredShadingMSAA.obj
 0001:00004240       ?_Getal@?$_Vector_alloc@$0A@U?$_Vec_base_types@UD3DXVECTOR3@@V?$allocator@UD3DXVECTOR3@@@std@@@std@@@std@@QBE?AU?$_Wrap_alloc@V?$allocator@UD3DXVECTOR3@@@std@@@2@XZ 00405240 f i ObjMeshDX.obj
 0001:00004240       ?_Getal@?$_Vector_alloc@$0A@U?$_Vec_base_types@UVertexFace@?3??ComputeVertexNormals@ObjMeshDX@@AAEXXZ@V?$allocator@UVertexFace@?3??ComputeVertexNormals@ObjMeshDX@@AAEXXZ@@std@@@std@@@std@@QBE?AU?$_Wrap_alloc@V?$allocator@UVertexFace@?3??ComputeVertexNormals@ObjMeshDX@@AAEXXZ@@std@@@2@XZ 00405240 f i ObjMeshDX.obj
 0001:00004240       ?_Getal@?$_List_alloc@$0A@U?$_List_base_types@NV?$allocator@N@std@@@std@@@std@@QBE?AU?$_Wrap_alloc@V?$allocator@U?$_List_node@NPAX@std@@@std@@@2@XZ 00405240 f i DeferredShadingMSAA.obj
 0001:00004240       ?_Getal@?$_String_alloc@$0A@U?$_String_base_types@DV?$allocator@D@std@@@std@@@std@@QBE?AU?$_Wrap_alloc@V?$allocator@D@std@@@2@XZ 00405240 f i DeferredRenderer.obj
 0001:00004240       ?_Getal@?$_Vector_alloc@$0A@U?$_Vec_base_types@KV?$allocator@K@std@@@std@@@std@@QBE?AU?$_Wrap_alloc@V?$allocator@K@std@@@2@XZ 00405240 f i ObjMeshDX.obj
 0001:00004240       ?_Getal@?$_Vector_alloc@$0A@U?$_Vec_base_types@PAUMaterial@@V?$allocator@PAUMaterial@@@std@@@std@@@std@@QBE?AU?$_Wrap_alloc@V?$allocator@PAUMaterial@@@std@@@2@XZ 00405240 f i ObjMeshDX.obj
 0001:00004240       ?_Getal@?$_List_alloc@$0A@U?$_List_base_types@PAVIVisualController@@V?$allocator@PAVIVisualController@@@std@@@std@@@std@@QBE?AU?$_Wrap_alloc@V?$allocator@U?$_List_node@PAVIVisualController@@PAX@std@@@std@@@2@XZ 00405240 f i DeferredShadingMSAA.obj
 0001:00004240       ?_Getal@?$_Vector_alloc@$0A@U?$_Vec_base_types@HV?$allocator@H@std@@@std@@@std@@QBE?AU?$_Wrap_alloc@V?$allocator@H@std@@@2@XZ 00405240 f i ObjMeshDX.obj
 0001:00004240       ?_Getal@?$_Vector_alloc@$0A@U?$_Vec_base_types@PAVObjMeshDX@@V?$allocator@PAVObjMeshDX@@@std@@@std@@@std@@QBE?AU?$_Wrap_alloc@V?$allocator@PAVObjMeshDX@@@std@@@2@XZ 00405240 f i DeferredRenderer.obj
 0001:00004240       ?_Getal@?$_Vector_alloc@$0A@U?$_Vec_base_types@UMeshFace@@V?$allocator@UMeshFace@@@std@@@std@@@std@@QBE?AU?$_Wrap_alloc@V?$allocator@UMeshFace@@@std@@@2@XZ 00405240 f i ObjMeshDX.obj
 0001:00004240       ?_Getal@?$_Vector_alloc@$0A@U?$_Vec_base_types@UMeshVertex@@V?$allocator@UMeshVertex@@@std@@@std@@@std@@QBE?AU?$_Wrap_alloc@V?$allocator@UMeshVertex@@@std@@@2@XZ 00405240 f i ObjMeshDX.obj
 0001:00004240       ?_Getal@?$_String_alloc@$0A@U?$_String_base_types@_WV?$allocator@_W@std@@@std@@@std@@QBE?AU?$_Wrap_alloc@V?$allocator@_W@std@@@2@XZ 00405240 f i DeferredShadingMSAA.obj
 0001:00004240       ?_Getal@?$_Vector_alloc@$0A@U?$_Vec_base_types@PAUCacheEntry@@V?$allocator@PAUCacheEntry@@@std@@@std@@@std@@QBE?AU?$_Wrap_alloc@V?$allocator@PAUCacheEntry@@@std@@@2@XZ 00405240 f i ObjMeshDX.obj
 0001:00004240       ?_Getal@?$_Vector_alloc@$0A@U?$_Vec_base_types@UD3DXVECTOR2@@V?$allocator@UD3DXVECTOR2@@@std@@@std@@@std@@QBE?AU?$_Wrap_alloc@V?$allocator@UD3DXVECTOR2@@@std@@@2@XZ 00405240 f i ObjMeshDX.obj
 0001:00004260       ?_Grow@?$basic_string@_WU?$char_traits@_W@std@@V?$allocator@_W@2@@std@@QAE_NI_N@Z 00405260 f i DeferredShadingMSAA.obj
 0001:00004310       ?_Inside@?$basic_string@_WU?$char_traits@_W@std@@V?$allocator@_W@2@@std@@QAE_NPB_W@Z 00405310 f i DeferredShadingMSAA.obj
 0001:00004350       ?_Myptr@?$_String_val@U?$_Simple_types@_W@std@@@std@@QBEPB_WXZ 00405350 f i DeferredShadingMSAA.obj
 0001:00004350       ?_Myptr@?$_String_val@U?$_Simple_types@_W@std@@@std@@QAEPA_WXZ 00405350 f i DeferredShadingMSAA.obj
 0001:00004390       ?_Myval@?$_List_val@U?$_List_simple_types@PAVIVisualController@@@std@@@std@@SAAAPAVIVisualController@@PAU?$_List_node@PAVIVisualController@@PAX@2@@Z 00405390 f i DeferredShadingMSAA.obj
 0001:00004390       ?_Myval@?$_List_val@U?$_List_simple_types@N@std@@@std@@SAAANPAU?$_List_node@NPAX@2@@Z 00405390 f i DeferredShadingMSAA.obj
 0001:000043a0       ??$_Unchecked@PAUD3DXVECTOR3@@@std@@YAPAUD3DXVECTOR3@@PAU1@@Z 004053a0 f i ObjMeshDX.obj
 0001:000043a0       ??$forward@AAPAUMaterial@@@std@@YAAAPAUMaterial@@AAPAU1@@Z 004053a0 f i ObjMeshDX.obj
 0001:000043a0       ??$_Unchecked@PAUMeshFace@@@std@@YAPAUMeshFace@@PAU1@@Z 004053a0 f i ObjMeshDX.obj
 0001:000043a0       ??$_Unchecked@PAH@std@@YAPAHPAH@Z 004053a0 f i ObjMeshDX.obj
 0001:000043a0       ??$addressof@N@std@@YAPANAAN@Z 004053a0 f i DeferredShadingMSAA.obj
 0001:000043a0       ?_Nextnode@?$_List_val@U?$_List_simple_types@N@std@@@std@@SAAAPAU?$_List_node@NPAX@2@PAU32@@Z 004053a0 f i DeferredShadingMSAA.obj
 0001:000043a0       ??$forward@AAPA_W@std@@YAAAPA_WAAPA_W@Z 004053a0 f i DeferredShadingMSAA.obj
 0001:000043a0       ??$forward@PAUCacheEntry@@@std@@YA$$QAPAUCacheEntry@@AAPAU1@@Z 004053a0 f i ObjMeshDX.obj
 0001:000043a0       ??$forward@AAK@std@@YAAAKAAK@Z 004053a0 f i ObjMeshDX.obj
 0001:000043a0       ??$forward@UD3DXVECTOR2@@@std@@YA$$QAUD3DXVECTOR2@@AAU1@@Z 004053a0 f i ObjMeshDX.obj
 0001:000043a0       ??$addressof@PAVIVisualController@@@std@@YAPAPAVIVisualController@@AAPAV1@@Z 004053a0 f i DeferredShadingMSAA.obj
 0001:000043a0       ??$forward@AAUMeshVertex@@@std@@YAAAUMeshVertex@@AAU1@@Z 004053a0 f i ObjMeshDX.obj
 0001:000043a0       ??$addressof@$$CBUMeshFace@@@std@@YAPBUMeshFace@@ABU1@@Z 004053a0 f i ObjMeshDX.obj
 0001:000043a0       ??$forward@AAPAVObjMeshDX@@@std@@YAAAPAVObjMeshDX@@AAPAV1@@Z 004053a0 f i DeferredRenderer.obj
 0001:000043a0       ??$forward@ABN@std@@YAABNABN@Z 004053a0 f i nvidiautilsDEBUG:DeviceManager.obj
 0001:000043a0       ??$addressof@QAVIVisualController@@@std@@YAPBQAVIVisualController@@ABQAV1@@Z 004053a0 f i nvidiautilsDEBUG:DeviceManager.obj
 0001:000043a0       ??$_Unchecked@PAUMeshVertex@@@std@@YAPAUMeshVertex@@PAU1@@Z 004053a0 f i ObjMeshDX.obj
 0001:000043a0       ??$addressof@$$CBH@std@@YAPBHABH@Z 004053a0 f i ObjMeshDX.obj
 0001:000043a0       ??$addressof@PAU?$_List_node@NPAX@std@@@std@@YAPAPAU?$_List_node@NPAX@0@AAPAU10@@Z 004053a0 f i DeferredShadingMSAA.obj
 0001:000043a0       ??$_Unchecked@PAUD3DXVECTOR2@@@std@@YAPAUD3DXVECTOR2@@PAU1@@Z 004053a0 f i ObjMeshDX.obj
 0001:000043a0       ??$_Unchecked@PAPAUMaterial@@@std@@YAPAPAUMaterial@@PAPAU1@@Z 004053a0 f i ObjMeshDX.obj
 0001:000043a0       ??$_Unchecked@PAPAUCacheEntry@@@std@@YAPAPAUCacheEntry@@PAPAU1@@Z 004053a0 f i ObjMeshDX.obj
 0001:000043a0       ??$addressof@_W@std@@YAPA_WAA_W@Z 004053a0 f i DeferredShadingMSAA.obj
 0001:000043a0       ??$forward@AAH@std@@YAAAHAAH@Z 004053a0 f i ObjMeshDX.obj
 0001:000043a0       ??$forward@ABK@std@@YAABKABK@Z 004053a0 f i ObjMeshDX.obj
 0001:000043a0       ??$_Unchecked@PAUVertexFace@?3??ComputeVertexNormals@ObjMeshDX@@AAEXXZ@@std@@YAPAUVertexFace@?3??ComputeVertexNormals@ObjMeshDX@@AAEXXZ@PAU1?3??23@AAEXXZ@@Z 004053a0 f i ObjMeshDX.obj
 0001:000043a0       ?_Nextnode@?$_List_val@U?$_List_simple_types@PAVIVisualController@@@std@@@std@@SAAAPAU?$_List_node@PAVIVisualController@@PAX@2@PAU32@@Z 004053a0 f i DeferredShadingMSAA.obj
 0001:000043a0       ??$forward@ABQAVObjMeshDX@@@std@@YAABQAVObjMeshDX@@ABQAV1@@Z 004053a0 f i DeferredRenderer.obj
 0001:000043a0       ??$forward@UD3DXVECTOR3@@@std@@YA$$QAUD3DXVECTOR3@@AAU1@@Z 004053a0 f i ObjMeshDX.obj
 0001:000043a0       ??$addressof@PAUCacheEntry@@@std@@YAPAPAUCacheEntry@@AAPAU1@@Z 004053a0 f i ObjMeshDX.obj
 0001:000043a0       ??$forward@UMeshVertex@@@std@@YA$$QAUMeshVertex@@AAU1@@Z 004053a0 f i ObjMeshDX.obj
 0001:000043a0       ??$addressof@K@std@@YAPAKAAK@Z 004053a0 f i ObjMeshDX.obj
 0001:000043a0       ??$forward@ABUMeshFace@@@std@@YAABUMeshFace@@ABU1@@Z 004053a0 f i ObjMeshDX.obj
 0001:000043a0       ??$forward@ABH@std@@YAABHABH@Z 004053a0 f i ObjMeshDX.obj
 0001:000043a0       ??$addressof@$$CBUMeshVertex@@@std@@YAPBUMeshVertex@@ABU1@@Z 004053a0 f i ObjMeshDX.obj
 0001:000043a0       ??$forward@ABQAUMaterial@@@std@@YAABQAUMaterial@@ABQAU1@@Z 004053a0 f i ObjMeshDX.obj
 0001:000043a0       ??$addressof@PAU?$_List_node@PAVIVisualController@@PAX@std@@@std@@YAPAPAU?$_List_node@PAVIVisualController@@PAX@0@AAPAU10@@Z 004053a0 f i DeferredShadingMSAA.obj
 0001:000043a0       ??$addressof@D@std@@YAPADAAD@Z 004053a0 f i DeferredRenderer.obj
 0001:000043a0       ??$forward@ABQAVIVisualController@@@std@@YAABQAVIVisualController@@ABQAV1@@Z 004053a0 f i nvidiautilsDEBUG:DeviceManager.obj
 0001:000043a0       ??$forward@K@std@@YA$$QAKAAK@Z 004053a0 f i ObjMeshDX.obj
 0001:000043a0       ??$forward@AAPAD@std@@YAAAPADAAPAD@Z 004053a0 f i DeferredRenderer.obj
 0001:000043a0       ??$addressof@QAVObjMeshDX@@@std@@YAPBQAVObjMeshDX@@ABQAV1@@Z 004053a0 f i DeferredRenderer.obj
 0001:000043a0       ??$forward@UMeshFace@@@std@@YA$$QAUMeshFace@@AAU1@@Z 004053a0 f i ObjMeshDX.obj
 0001:000043a0       ??$forward@AAPAU?$_List_node@NPAX@std@@@std@@YAAAPAU?$_List_node@NPAX@0@AAPAU10@@Z 004053a0 f i DeferredShadingMSAA.obj
 0001:000043a0       ??$addressof@QAUMaterial@@@std@@YAPBQAUMaterial@@ABQAU1@@Z 004053a0 f i ObjMeshDX.obj
 0001:000043a0       ??$_Unchecked@PAK@std@@YAPAKPAK@Z 004053a0 f i ObjMeshDX.obj
 0001:000043a0       ??$addressof@$$CBK@std@@YAPBKABK@Z 004053a0 f i ObjMeshDX.obj
 0001:000043a0       ??$addressof@UD3DXVECTOR3@@@std@@YAPAUD3DXVECTOR3@@AAU1@@Z 004053a0 f i ObjMeshDX.obj
 0001:000043a0       ??$forward@UVertexFace@?3??ComputeVertexNormals@ObjMeshDX@@AAEXXZ@@std@@YA$$QAUVertexFace@?3??ComputeVertexNormals@ObjMeshDX@@AAEXXZ@AAU1?3??23@AAEXXZ@@Z 004053a0 f i ObjMeshDX.obj
 0001:000043a0       ??$forward@ABUMeshVertex@@@std@@YAABUMeshVertex@@ABU1@@Z 004053a0 f i ObjMeshDX.obj
 0001:000043a0       ??$forward@AAPAU?$_List_node@PAVIVisualController@@PAX@std@@@std@@YAAAPAU?$_List_node@PAVIVisualController@@PAX@0@AAPAU10@@Z 004053a0 f i DeferredShadingMSAA.obj
 0001:000043a0       ??$_Unchecked@PAPAVObjMeshDX@@@std@@YAPAPAVObjMeshDX@@PAPAV1@@Z 004053a0 f i DeferredRenderer.obj
 0001:000043a0       ??$addressof@UD3DXVECTOR2@@@std@@YAPAUD3DXVECTOR2@@AAU1@@Z 004053a0 f i ObjMeshDX.obj
 0001:000043a0       ??$forward@AAUMeshFace@@@std@@YAAAUMeshFace@@AAU1@@Z 004053a0 f i ObjMeshDX.obj
 0001:000043b0       ?_Prevnode@?$_List_val@U?$_List_simple_types@N@std@@@std@@SAAAPAU?$_List_node@NPAX@2@PAU32@@Z 004053b0 f i DeferredShadingMSAA.obj
 0001:000043b0       ?_Prevnode@?$_List_val@U?$_List_simple_types@PAVIVisualController@@@std@@@std@@SAAAPAU?$_List_node@PAVIVisualController@@PAX@2@PAU32@@Z 004053b0 f i DeferredShadingMSAA.obj
 0001:000043c0       ?_Tidy@?$basic_string@_WU?$char_traits@_W@std@@V?$allocator@_W@2@@std@@QAEX_NI@Z 004053c0 f i DeferredShadingMSAA.obj
 0001:00004460       ?_Tidy@?$list@NV?$allocator@N@std@@@std@@QAEXXZ 00405460 f i DeferredShadingMSAA.obj
 0001:00004460       ?_Tidy@?$list@PAVIVisualController@@V?$allocator@PAVIVisualController@@@std@@@std@@QAEXXZ 00405460 f i DeferredShadingMSAA.obj
 0001:00004480       ?_Xlen@?$basic_string@_WU?$char_traits@_W@std@@V?$allocator@_W@2@@std@@QBEXXZ 00405480 f i DeferredShadingMSAA.obj
 0001:00004480       ?_Xlen@?$basic_string@DU?$char_traits@D@std@@V?$allocator@D@2@@std@@QBEXXZ 00405480 f i DeferredRenderer.obj
 0001:000044a0       ?allocate@?$_Wrap_alloc@V?$allocator@_W@std@@@std@@QAEPA_WI@Z 004054a0 f i DeferredShadingMSAA.obj
 0001:000044c0       ?allocate@?$allocator@_W@std@@QAEPA_WI@Z 004054c0 f i DeferredShadingMSAA.obj
 0001:000044e0       ?assign@?$basic_string@_WU?$char_traits@_W@std@@V?$allocator@_W@2@@std@@QAEAAV12@ABV12@II@Z 004054e0 f i DeferredShadingMSAA.obj
 0001:00004590       ?assign@?$basic_string@_WU?$char_traits@_W@std@@V?$allocator@_W@2@@std@@QAEAAV12@PB_W@Z 00405590 f i DeferredShadingMSAA.obj
 0001:000045c0       ?assign@?$basic_string@_WU?$char_traits@_W@std@@V?$allocator@_W@2@@std@@QAEAAV12@PB_WI@Z 004055c0 f i DeferredShadingMSAA.obj
 0001:00004640       ?assign@?$char_traits@_W@std@@SAXAA_WAB_W@Z 00405640 f i DeferredShadingMSAA.obj
 0001:00004660       ?clear@?$list@NV?$allocator@N@std@@@std@@QAEXXZ 00405660 f i DeferredShadingMSAA.obj
 0001:00004660       ?clear@?$list@PAVIVisualController@@V?$allocator@PAVIVisualController@@@std@@@std@@QAEXXZ 00405660 f i DeferredShadingMSAA.obj
 0001:000046f0       ?copy@?$char_traits@_W@std@@SAPA_WPA_WPB_WI@Z 004056f0 f i DeferredShadingMSAA.obj
 0001:00004720       ?deallocate@?$allocator@PAUCacheEntry@@@std@@QAEXPAPAUCacheEntry@@I@Z 00405720 f i ObjMeshDX.obj
 0001:00004720       ?deallocate@?$allocator@PAUMaterial@@@std@@QAEXPAPAUMaterial@@I@Z 00405720 f i ObjMeshDX.obj
 0001:00004720       ?deallocate@?$allocator@UMeshFace@@@std@@QAEXPAUMeshFace@@I@Z 00405720 f i ObjMeshDX.obj
 0001:00004720       ?deallocate@?$allocator@U?$_List_node@NPAX@std@@@std@@QAEXPAU?$_List_node@NPAX@2@I@Z 00405720 f i DeferredShadingMSAA.obj
 0001:00004720       ?deallocate@?$allocator@UMeshVertex@@@std@@QAEXPAUMeshVertex@@I@Z 00405720 f i ObjMeshDX.obj
 0001:00004720       ?deallocate@?$allocator@H@std@@QAEXPAHI@Z 00405720 f i ObjMeshDX.obj
 0001:00004720       ?deallocate@?$allocator@PAVObjMeshDX@@@std@@QAEXPAPAVObjMeshDX@@I@Z 00405720 f i DeferredRenderer.obj
 0001:00004720       ?deallocate@?$allocator@UVertexFace@?3??ComputeVertexNormals@ObjMeshDX@@AAEXXZ@@std@@QAEXPAUVertexFace@?3??ComputeVertexNormals@ObjMeshDX@@AAEXXZ@I@Z 00405720 f i ObjMeshDX.obj
 0001:00004720       ?deallocate@?$allocator@_W@std@@QAEXPA_WI@Z 00405720 f i DeferredShadingMSAA.obj
 0001:00004720       ?deallocate@?$allocator@D@std@@QAEXPADI@Z 00405720 f i DeferredRenderer.obj
 0001:00004720       ?deallocate@?$allocator@UD3DXVECTOR3@@@std@@QAEXPAUD3DXVECTOR3@@I@Z 00405720 f i ObjMeshDX.obj
 0001:00004720       ?deallocate@?$allocator@U?$_List_node@PAVIVisualController@@PAX@std@@@std@@QAEXPAU?$_List_node@PAVIVisualController@@PAX@2@I@Z 00405720 f i DeferredShadingMSAA.obj
 0001:00004720       ?deallocate@?$allocator@UD3DXVECTOR2@@@std@@QAEXPAUD3DXVECTOR2@@I@Z 00405720 f i ObjMeshDX.obj
 0001:00004720       ?deallocate@?$allocator@K@std@@QAEXPAKI@Z 00405720 f i ObjMeshDX.obj
 0001:00004740       ?erase@?$basic_string@_WU?$char_traits@_W@std@@V?$allocator@_W@2@@std@@QAEAAV12@I@Z 00405740 f i DeferredShadingMSAA.obj
 0001:00004770       ?erase@?$basic_string@_WU?$char_traits@_W@std@@V?$allocator@_W@2@@std@@QAEAAV12@II@Z 00405770 f i DeferredShadingMSAA.obj
 0001:00004800       ?length@?$char_traits@_W@std@@SAIPB_W@Z 00405800 f i DeferredShadingMSAA.obj
 0001:00004860       ?max_size@?$_Wrap_alloc@V?$allocator@_W@std@@@std@@QBEIXZ 00405860 f i DeferredShadingMSAA.obj
 0001:00004880       ?max_size@?$allocator@_W@std@@QBEIXZ 00405880 f i DeferredShadingMSAA.obj
 0001:00004890       ?max_size@?$allocator_traits@V?$allocator@_W@std@@@std@@SAIABV?$allocator@_W@2@@Z 00405890 f i DeferredShadingMSAA.obj
 0001:000048a0       ?max_size@?$basic_string@_WU?$char_traits@_W@std@@V?$allocator@_W@2@@std@@QBEIXZ 004058a0 f i DeferredShadingMSAA.obj
 0001:000048e0       ?move@?$char_traits@_W@std@@SAPA_WPA_WPB_WI@Z 004058e0 f i DeferredShadingMSAA.obj
 0001:00004910       _wmemcpy                   00405910 f i DeferredShadingMSAA.obj
 0001:00004930       _wmemmove                  00405930 f i DeferredShadingMSAA.obj
 0001:00004950       ??0ObjMeshDX@@QAE@XZ       00405950 f   ObjMeshDX.obj
 0001:00004a10       ??1ObjMeshDX@@QAE@XZ       00405a10 f   ObjMeshDX.obj
 0001:00004ac0       ?Create@ObjMeshDX@@QAEJPAUID3D11Device@@PB_W@Z 00405ac0 f   ObjMeshDX.obj
 0001:00004e40       ?Destroy@ObjMeshDX@@QAEXXZ 00405e40 f   ObjMeshDX.obj
 0001:00004fc0       ?Draw@ObjMeshDX@@QBEXPAUID3D11DeviceContext@@ABUD3DXMATRIX@@11H@Z 00405fc0 f   ObjMeshDX.obj
 0001:00005290       ?LoadGeometryFromOBJ@ObjMeshDX@@AAEJPB_W@Z 00406290 f   ObjMeshDX.obj
 0001:000064e0       ?LoadMaterialsFromMTL@ObjMeshDX@@AAEJPB_W@Z 004074e0 f   ObjMeshDX.obj
 0001:00007080       ?ComputeVertexNormals@ObjMeshDX@@AAEXXZ 00408080 f   ObjMeshDX.obj
 0001:000075e0       ?InitMaterial@ObjMeshDX@@AAEXPAUMaterial@@@Z 004085e0 f   ObjMeshDX.obj
 0001:00007730       ?AddVertex@ObjMeshDX@@AAEKIPAUMeshVertex@@@Z 00408730 f   ObjMeshDX.obj
 0001:00007880       ?DeleteCache@ObjMeshDX@@AAEXXZ 00408880 f   ObjMeshDX.obj
 0001:00007b10       ??$?5_WU?$char_traits@_W@std@@@std@@YAAAV?$basic_istream@_WU?$char_traits@_W@std@@@0@AAV10@PA_W@Z 00408b10 f i ObjMeshDX.obj
 0001:00007dc0       ??$_Allocate@PAVObjMeshDX@@@std@@YAPAPAVObjMeshDX@@IPAPAV1@@Z 00408dc0 f i DeferredRenderer.obj
 0001:00007dc0       ??$_Allocate@K@std@@YAPAKIPAK@Z 00408dc0 f i ObjMeshDX.obj
 0001:00007dc0       ??$_Allocate@H@std@@YAPAHIPAH@Z 00408dc0 f i ObjMeshDX.obj
 0001:00007dc0       ??$_Allocate@PAUCacheEntry@@@std@@YAPAPAUCacheEntry@@IPAPAU1@@Z 00408dc0 f i ObjMeshDX.obj
 0001:00007dc0       ??$_Allocate@PAUMaterial@@@std@@YAPAPAUMaterial@@IPAPAU1@@Z 00408dc0 f i ObjMeshDX.obj
 0001:00007e10       ??$_Allocate@UD3DXVECTOR2@@@std@@YAPAUD3DXVECTOR2@@IPAU1@@Z 00408e10 f i ObjMeshDX.obj
 0001:00007e60       ??$_Allocate@UD3DXVECTOR3@@@std@@YAPAUD3DXVECTOR3@@IPAU1@@Z 00408e60 f i ObjMeshDX.obj
 0001:00007e60       ??$_Allocate@U?$_List_node@PAVIVisualController@@PAX@std@@@std@@YAPAU?$_List_node@PAVIVisualController@@PAX@0@IPAU10@@Z 00408e60 f i DeferredShadingMSAA.obj
 0001:00007ea0       ??$_Allocate@UMeshFace@@@std@@YAPAUMeshFace@@IPAU1@@Z 00408ea0 f i ObjMeshDX.obj
 0001:00007ea0       ??$_Allocate@U?$_List_node@NPAX@std@@@std@@YAPAU?$_List_node@NPAX@0@IPAU10@@Z 00408ea0 f i DeferredShadingMSAA.obj
 0001:00007ea0       ??$_Allocate@UVertexFace@?3??ComputeVertexNormals@ObjMeshDX@@AAEXXZ@@std@@YAPAUVertexFace@?3??ComputeVertexNormals@ObjMeshDX@@AAEXXZ@IPAU1?3??23@AAEXXZ@@Z 00408ea0 f i ObjMeshDX.obj
 0001:00007ef0       ??$_Allocate@UMeshVertex@@@std@@YAPAUMeshVertex@@IPAU1@@Z 00408ef0 f i ObjMeshDX.obj
 0001:00007f40       ??$_DebugHeapDelete@V_Facet_base@std@@@std@@YAXPAV_Facet_base@0@@Z 00408f40 f i ObjMeshDX.obj
 0001:00007f70       ??$_Destroy_range@U?$_Wrap_alloc@V?$allocator@PAVObjMeshDX@@@std@@@std@@@std@@YAXPAPAVObjMeshDX@@0AAU?$_Wrap_alloc@V?$allocator@PAVObjMeshDX@@@std@@@0@@Z 00408f70 f i DeferredRenderer.obj
 0001:00007f70       ??$_Destroy_range@U?$_Wrap_alloc@V?$allocator@PAUCacheEntry@@@std@@@std@@@std@@YAXPAPAUCacheEntry@@0AAU?$_Wrap_alloc@V?$allocator@PAUCacheEntry@@@std@@@0@@Z 00408f70 f i ObjMeshDX.obj
 0001:00007f70       ??$_Destroy_range@U?$_Wrap_alloc@V?$allocator@K@std@@@std@@@std@@YAXPAK0AAU?$_Wrap_alloc@V?$allocator@K@std@@@0@@Z 00408f70 f i ObjMeshDX.obj
 0001:00007f70       ??$_Destroy_range@U?$_Wrap_alloc@V?$allocator@H@std@@@std@@@std@@YAXPAH0AAU?$_Wrap_alloc@V?$allocator@H@std@@@0@@Z 00408f70 f i ObjMeshDX.obj
 0001:00007f70       ??$_Destroy_range@U?$_Wrap_alloc@V?$allocator@PAUMaterial@@@std@@@std@@@std@@YAXPAPAUMaterial@@0AAU?$_Wrap_alloc@V?$allocator@PAUMaterial@@@std@@@0@@Z 00408f70 f i ObjMeshDX.obj
 0001:00007fb0       ??$_Destroy_range@U?$_Wrap_alloc@V?$allocator@H@std@@@std@@@std@@YAXPAH0AAU?$_Wrap_alloc@V?$allocator@H@std@@@0@U_Scalar_ptr_iterator_tag@0@@Z 00408fb0 f i ObjMeshDX.obj
 0001:00007fb0       ??3@YAXPAX0@Z              00408fb0 f i DeferredRenderer.obj
 0001:00007fb0       ??$_Destroy_range@U?$_Wrap_alloc@V?$allocator@PAUMaterial@@@std@@@std@@@std@@YAXPAPAUMaterial@@0AAU?$_Wrap_alloc@V?$allocator@PAUMaterial@@@std@@@0@U_Scalar_ptr_iterator_tag@0@@Z 00408fb0 f i ObjMeshDX.obj
 0001:00007fb0       ??$_Destroy_range@U?$_Wrap_alloc@V?$allocator@K@std@@@std@@@std@@YAXPAK0AAU?$_Wrap_alloc@V?$allocator@K@std@@@0@U_Scalar_ptr_iterator_tag@0@@Z 00408fb0 f i ObjMeshDX.obj
 0001:00007fb0       ??$_Destroy_range@U?$_Wrap_alloc@V?$allocator@PAUCacheEntry@@@std@@@std@@@std@@YAXPAPAUCacheEntry@@0AAU?$_Wrap_alloc@V?$allocator@PAUCacheEntry@@@std@@@0@U_Scalar_ptr_iterator_tag@0@@Z 00408fb0 f i ObjMeshDX.obj
 0001:00007fb0       ??$_Destroy_range@U?$_Wrap_alloc@V?$allocator@PAVObjMeshDX@@@std@@@std@@@std@@YAXPAPAVObjMeshDX@@0AAU?$_Wrap_alloc@V?$allocator@PAVObjMeshDX@@@std@@@0@U_Scalar_ptr_iterator_tag@0@@Z 00408fb0 f i DeferredRenderer.obj
 0001:00007fc0       ??$_Destroy_range@U?$_Wrap_alloc@V?$allocator@UD3DXVECTOR2@@@std@@@std@@@std@@YAXPAUD3DXVECTOR2@@0AAU?$_Wrap_alloc@V?$allocator@UD3DXVECTOR2@@@std@@@0@@Z 00408fc0 f i ObjMeshDX.obj
 0001:00008000       ??$_Destroy_range@U?$_Wrap_alloc@V?$allocator@UD3DXVECTOR2@@@std@@@std@@@std@@YAXPAUD3DXVECTOR2@@0AAU?$_Wrap_alloc@V?$allocator@UD3DXVECTOR2@@@std@@@0@U_Nonscalar_ptr_iterator_tag@0@@Z 00409000 f i ObjMeshDX.obj
 0001:00008030       ??$_Destroy_range@U?$_Wrap_alloc@V?$allocator@UD3DXVECTOR3@@@std@@@std@@@std@@YAXPAUD3DXVECTOR3@@0AAU?$_Wrap_alloc@V?$allocator@UD3DXVECTOR3@@@std@@@0@@Z 00409030 f i ObjMeshDX.obj
 0001:00008070       ??$_Destroy_range@U?$_Wrap_alloc@V?$allocator@UD3DXVECTOR3@@@std@@@std@@@std@@YAXPAUD3DXVECTOR3@@0AAU?$_Wrap_alloc@V?$allocator@UD3DXVECTOR3@@@std@@@0@U_Nonscalar_ptr_iterator_tag@0@@Z 00409070 f i ObjMeshDX.obj
 0001:000080a0       ??$_Destroy_range@U?$_Wrap_alloc@V?$allocator@UMeshFace@@@std@@@std@@@std@@YAXPAUMeshFace@@0AAU?$_Wrap_alloc@V?$allocator@UMeshFace@@@std@@@0@@Z 004090a0 f i ObjMeshDX.obj
 0001:000080e0       ??$_Destroy_range@U?$_Wrap_alloc@V?$allocator@UMeshFace@@@std@@@std@@@std@@YAXPAUMeshFace@@0AAU?$_Wrap_alloc@V?$allocator@UMeshFace@@@std@@@0@U_Nonscalar_ptr_iterator_tag@0@@Z 004090e0 f i ObjMeshDX.obj
 0001:00008110       ??$_Destroy_range@U?$_Wrap_alloc@V?$allocator@UMeshVertex@@@std@@@std@@@std@@YAXPAUMeshVertex@@0AAU?$_Wrap_alloc@V?$allocator@UMeshVertex@@@std@@@0@@Z 00409110 f i ObjMeshDX.obj
 0001:00008150       ??$_Destroy_range@U?$_Wrap_alloc@V?$allocator@UMeshVertex@@@std@@@std@@@std@@YAXPAUMeshVertex@@0AAU?$_Wrap_alloc@V?$allocator@UMeshVertex@@@std@@@0@U_Nonscalar_ptr_iterator_tag@0@@Z 00409150 f i ObjMeshDX.obj
 0001:00008180       ??$_Destroy_range@U?$_Wrap_alloc@V?$allocator@UVertexFace@?3??ComputeVertexNormals@ObjMeshDX@@AAEXXZ@@std@@@std@@@std@@YAXPAUVertexFace@?3??ComputeVertexNormals@ObjMeshDX@@AAEXXZ@0AAU?$_Wrap_alloc@V?$allocator@UVertexFace@?3??ComputeVertexNormals@ObjMeshDX@@AAEXXZ@@std@@@0@@Z 00409180 f i ObjMeshDX.obj
 0001:000081c0       ??$_Destroy_range@U?$_Wrap_alloc@V?$allocator@UVertexFace@?3??ComputeVertexNormals@ObjMeshDX@@AAEXXZ@@std@@@std@@@std@@YAXPAUVertexFace@?3??ComputeVertexNormals@ObjMeshDX@@AAEXXZ@0AAU?$_Wrap_alloc@V?$allocator@UVertexFace@?3??ComputeVertexNormals@ObjMeshDX@@AAEXXZ@@std@@@0@U_Nonscalar_ptr_iterator_tag@0@@Z 004091c0 f i ObjMeshDX.obj
 0001:000081f0       ??$_Fgetc@_W@std@@YA_NAA_WPAU_iobuf@@@Z 004091f0 f i ObjMeshDX.obj
 0001:00008230       ??$_Fputc@_W@std@@YA_N_WPAU_iobuf@@@Z 00409230 f i ObjMeshDX.obj
 0001:00008270       ??$_Ptr_cat@UVertexFace@?3??ComputeVertexNormals@ObjMeshDX@@AAEXXZ@U1?3??23@AAEXXZ@@std@@YA?AU_Nonscalar_ptr_iterator_tag@0@PAUVertexFace@?3??ComputeVertexNormals@ObjMeshDX@@AAEXXZ@0@Z 00409270 f i ObjMeshDX.obj
 0001:00008270       ??$_Ptr_cat@UD3DXVECTOR3@@U1@@std@@YA?AU_Nonscalar_ptr_iterator_tag@0@PAUD3DXVECTOR3@@0@Z 00409270 f i ObjMeshDX.obj
 0001:00008270       ??$_Ptr_cat@KK@std@@YA?AU_Scalar_ptr_iterator_tag@0@PAK0@Z 00409270 f i ObjMeshDX.obj
 0001:00008270       ??$_Ptr_cat@UMeshVertex@@U1@@std@@YA?AU_Nonscalar_ptr_iterator_tag@0@PAUMeshVertex@@0@Z 00409270 f i ObjMeshDX.obj
 0001:00008270       ??$_Ptr_cat@UD3DXVECTOR2@@U1@@std@@YA?AU_Nonscalar_ptr_iterator_tag@0@PAUD3DXVECTOR2@@0@Z 00409270 f i ObjMeshDX.obj
 0001:00008270       ??$_Ptr_cat@PAUCacheEntry@@PAU1@@std@@YA?AU_Scalar_ptr_iterator_tag@0@PAPAUCacheEntry@@0@Z 00409270 f i ObjMeshDX.obj
 0001:00008270       ??$_Ptr_cat@PAUMaterial@@PAU1@@std@@YA?AU_Scalar_ptr_iterator_tag@0@PAPAUMaterial@@0@Z 00409270 f i ObjMeshDX.obj
 0001:00008270       ??$_Ptr_cat@PAVObjMeshDX@@PAV1@@std@@YA?AU_Scalar_ptr_iterator_tag@0@PAPAVObjMeshDX@@0@Z 00409270 f i DeferredRenderer.obj
 0001:00008270       ??$_Ptr_cat@UMeshFace@@U1@@std@@YA?AU_Nonscalar_ptr_iterator_tag@0@PAUMeshFace@@0@Z 00409270 f i ObjMeshDX.obj
 0001:00008270       ??$_Ptr_cat@HH@std@@YA?AU_Scalar_ptr_iterator_tag@0@PBHPAH@Z 00409270 f i ObjMeshDX.obj
 0001:00008270       ??$_Ptr_cat@HH@std@@YA?AU_Scalar_ptr_iterator_tag@0@PAH0@Z 00409270 f i ObjMeshDX.obj
 0001:00008280       ??$_Rechecked@PAUVertexFace@?3??ComputeVertexNormals@ObjMeshDX@@AAEXXZ@PAU1?3??23@AAEXXZ@@std@@YAAAPAUVertexFace@?3??ComputeVertexNormals@ObjMeshDX@@AAEXXZ@AAPAU1?3??23@AAEXXZ@PAU1?3??23@AAEXXZ@@Z 00409280 f i ObjMeshDX.obj
 0001:00008280       ??$_Rechecked@PAUMeshVertex@@PAU1@@std@@YAAAPAUMeshVertex@@AAPAU1@PAU1@@Z 00409280 f i ObjMeshDX.obj
 0001:00008280       ??$_Rechecked@PAPAVObjMeshDX@@PAPAV1@@std@@YAAAPAPAVObjMeshDX@@AAPAPAV1@PAPAV1@@Z 00409280 f i DeferredRenderer.obj
 0001:00008280       ??$_Rechecked@PAPAUMaterial@@PAPAU1@@std@@YAAAPAPAUMaterial@@AAPAPAU1@PAPAU1@@Z 00409280 f i ObjMeshDX.obj
 0001:00008280       ??$_Rechecked@PAUD3DXVECTOR3@@PAU1@@std@@YAAAPAUD3DXVECTOR3@@AAPAU1@PAU1@@Z 00409280 f i ObjMeshDX.obj
 0001:00008280       ??$_Rechecked@PAUD3DXVECTOR2@@PAU1@@std@@YAAAPAUD3DXVECTOR2@@AAPAU1@PAU1@@Z 00409280 f i ObjMeshDX.obj
 0001:00008280       ??$_Rechecked@PAUMeshFace@@PAU1@@std@@YAAAPAUMeshFace@@AAPAU1@PAU1@@Z 00409280 f i ObjMeshDX.obj
 0001:00008280       ??$_Rechecked@PAKPAK@std@@YAAAPAKAAPAKPAK@Z 00409280 f i ObjMeshDX.obj
 0001:00008280       ??$_Rechecked@PAHPAH@std@@YAAAPAHAAPAHPAH@Z 00409280 f i ObjMeshDX.obj
 0001:00008280       ??$_Rechecked@PAPAUCacheEntry@@PAPAU1@@std@@YAAAPAPAUCacheEntry@@AAPAPAU1@PAPAU1@@Z 00409280 f i ObjMeshDX.obj
 0001:00008290       ??$_Ucopy@V?$_Vector_const_iterator@V?$_Vector_val@U?$_Simple_types@H@std@@@std@@@std@@@?$vector@HV?$allocator@H@std@@@std@@IAEPAHV?$_Vector_const_iterator@V?$_Vector_val@U?$_Simple_types@H@std@@@std@@@1@0PAH@Z 00409290 f i ObjMeshDX.obj
 0001:000082d0       ??$_Umove@PAPAVObjMeshDX@@@?$vector@PAVObjMeshDX@@V?$allocator@PAVObjMeshDX@@@std@@@std@@IAEPAPAVObjMeshDX@@PAPAV2@00@Z 004092d0 f i DeferredRenderer.obj
 0001:000082d0       ??$_Umove@PAPAUMaterial@@@?$vector@PAUMaterial@@V?$allocator@PAUMaterial@@@std@@@std@@IAEPAPAUMaterial@@PAPAU2@00@Z 004092d0 f i ObjMeshDX.obj
 0001:000082d0       ??$_Umove@PAPAUCacheEntry@@@?$vector@PAUCacheEntry@@V?$allocator@PAUCacheEntry@@@std@@@std@@IAEPAPAUCacheEntry@@PAPAU2@00@Z 004092d0 f i ObjMeshDX.obj
 0001:000082d0       ??$_Umove@PAK@?$vector@KV?$allocator@K@std@@@std@@IAEPAKPAK00@Z 004092d0 f i ObjMeshDX.obj
 0001:000082d0       ??$_Umove@PAH@?$vector@HV?$allocator@H@std@@@std@@IAEPAHPAH00@Z 004092d0 f i ObjMeshDX.obj
 0001:00008310       ??$_Umove@PAUD3DXVECTOR2@@@?$vector@UD3DXVECTOR2@@V?$allocator@UD3DXVECTOR2@@@std@@@std@@IAEPAUD3DXVECTOR2@@PAU2@00@Z 00409310 f i ObjMeshDX.obj
 0001:00008350       ??$_Umove@PAUD3DXVECTOR3@@@?$vector@UD3DXVECTOR3@@V?$allocator@UD3DXVECTOR3@@@std@@@std@@IAEPAUD3DXVECTOR3@@PAU2@00@Z 00409350 f i ObjMeshDX.obj
 0001:00008390       ??$_Umove@PAUMeshFace@@@?$vector@UMeshFace@@V?$allocator@UMeshFace@@@std@@@std@@IAEPAUMeshFace@@PAU2@00@Z 00409390 f i ObjMeshDX.obj
 0001:000083d0       ??$_Umove@PAUMeshVertex@@@?$vector@UMeshVertex@@V?$allocator@UMeshVertex@@@std@@@std@@IAEPAUMeshVertex@@PAU2@00@Z 004093d0 f i ObjMeshDX.obj
 0001:00008410       ??$_Umove@PAUVertexFace@?3??ComputeVertexNormals@ObjMeshDX@@AAEXXZ@@?$vector@UVertexFace@?3??ComputeVertexNormals@ObjMeshDX@@AAEXXZ@V?$allocator@UVertexFace@?3??ComputeVertexNormals@ObjMeshDX@@AAEXXZ@@std@@@std@@IAEPAUVertexFace@?3??ComputeVertexNormals@ObjMeshDX@@AAEXXZ@PAU2?3??34@AAEXXZ@00@Z 00409410 f i ObjMeshDX.obj
 0001:00008450       ??$_Unchecked@V?$_Vector_val@U?$_Simple_types@H@std@@@std@@@std@@YAPBHV?$_Vector_const_iterator@V?$_Vector_val@U?$_Simple_types@H@std@@@std@@@0@@Z 00409450 f i ObjMeshDX.obj
 0001:00008460       ??$_Ungetc@_W@std@@YA_NAB_WPAU_iobuf@@@Z 00409460 f i ObjMeshDX.obj
 0001:000084a0       ??$_Uninit_copy@PBHPAHU?$_Wrap_alloc@V?$allocator@H@std@@@std@@@std@@YAPAHPBH0PAHAAU?$_Wrap_alloc@V?$allocator@H@std@@@0@@Z 004094a0 f i ObjMeshDX.obj
 0001:000084e0       ??$_Uninit_def_fill_n@PAUD3DXVECTOR3@@IV?$allocator@UD3DXVECTOR3@@@std@@U1@@std@@YAXPAUD3DXVECTOR3@@IAAU?$_Wrap_alloc@V?$allocator@UD3DXVECTOR3@@@std@@@0@0U_Nonscalar_ptr_iterator_tag@0@@Z 004094e0 f i ObjMeshDX.obj
 0001:000085a0       ??$_Uninit_def_fill_n@PAUVertexFace@?3??ComputeVertexNormals@ObjMeshDX@@AAEXXZ@IV?$allocator@UVertexFace@?3??ComputeVertexNormals@ObjMeshDX@@AAEXXZ@@std@@U1?3??23@AAEXXZ@@std@@YAXPAUVertexFace@?3??ComputeVertexNormals@ObjMeshDX@@AAEXXZ@IAAU?$_Wrap_alloc@V?$allocator@UVertexFace@?3??ComputeVertexNormals@ObjMeshDX@@AAEXXZ@@std@@@0@0U_Nonscalar_ptr_iterator_tag@0@@Z 004095a0 f i ObjMeshDX.obj
 0001:00008660       ??$_Uninit_move@PAPAUCacheEntry@@PAPAU1@U?$_Wrap_alloc@V?$allocator@PAUCacheEntry@@@std@@@std@@@std@@YAPAPAUCacheEntry@@PAPAU1@00AAU?$_Wrap_alloc@V?$allocator@PAUCacheEntry@@@std@@@0@@Z 00409660 f i ObjMeshDX.obj
 0001:00008660       ??$_Uninit_move@PAHPAHU?$_Wrap_alloc@V?$allocator@H@std@@@std@@@std@@YAPAHPAH00AAU?$_Wrap_alloc@V?$allocator@H@std@@@0@@Z 00409660 f i ObjMeshDX.obj
 0001:00008660       ??$_Uninit_move@PAKPAKU?$_Wrap_alloc@V?$allocator@K@std@@@std@@@std@@YAPAKPAK00AAU?$_Wrap_alloc@V?$allocator@K@std@@@0@@Z 00409660 f i ObjMeshDX.obj
 0001:00008660       ??$_Uninit_move@PAPAUMaterial@@PAPAU1@U?$_Wrap_alloc@V?$allocator@PAUMaterial@@@std@@@std@@@std@@YAPAPAUMaterial@@PAPAU1@00AAU?$_Wrap_alloc@V?$allocator@PAUMaterial@@@std@@@0@@Z 00409660 f i ObjMeshDX.obj
 0001:00008660       ??$_Uninit_move@PAPAVObjMeshDX@@PAPAV1@U?$_Wrap_alloc@V?$allocator@PAVObjMeshDX@@@std@@@std@@@std@@YAPAPAVObjMeshDX@@PAPAV1@00AAU?$_Wrap_alloc@V?$allocator@PAVObjMeshDX@@@std@@@0@@Z 00409660 f i DeferredRenderer.obj
 0001:000086b0       ??$_Uninit_move@KKK@std@@YAPAKPAK00AAU?$_Wrap_alloc@V?$allocator@K@std@@@0@0U_Scalar_ptr_iterator_tag@0@@Z 004096b0 f i ObjMeshDX.obj
 0001:000086b0       ??$_Uninit_move@PAUMaterial@@PAU1@PAU1@@std@@YAPAPAUMaterial@@PAPAU1@00AAU?$_Wrap_alloc@V?$allocator@PAUMaterial@@@std@@@0@0U_Scalar_ptr_iterator_tag@0@@Z 004096b0 f i ObjMeshDX.obj
 0001:000086b0       ??$_Uninit_move@PAVObjMeshDX@@PAV1@PAV1@@std@@YAPAPAVObjMeshDX@@PAPAV1@00AAU?$_Wrap_alloc@V?$allocator@PAVObjMeshDX@@@std@@@0@0U_Scalar_ptr_iterator_tag@0@@Z 004096b0 f i DeferredRenderer.obj
 0001:000086b0       ??$_Uninit_move@HHH@std@@YAPAHPAH00AAU?$_Wrap_alloc@V?$allocator@H@std@@@0@0U_Scalar_ptr_iterator_tag@0@@Z 004096b0 f i ObjMeshDX.obj
 0001:000086b0       ??$_Uninit_move@PAUCacheEntry@@PAU1@PAU1@@std@@YAPAPAUCacheEntry@@PAPAU1@00AAU?$_Wrap_alloc@V?$allocator@PAUCacheEntry@@@std@@@0@0U_Scalar_ptr_iterator_tag@0@@Z 004096b0 f i ObjMeshDX.obj
 0001:000086b0       ??$_Uninit_copy@$$CBHH@std@@YAPAHPBH0PAHAAU?$_Wrap_alloc@V?$allocator@H@std@@@0@U_Scalar_ptr_iterator_tag@0@@Z 004096b0 f i ObjMeshDX.obj
 0001:000086f0       ??$_Uninit_move@PAUD3DXVECTOR2@@PAU1@U?$_Wrap_alloc@V?$allocator@UD3DXVECTOR2@@@std@@@std@@@std@@YAPAUD3DXVECTOR2@@PAU1@00AAU?$_Wrap_alloc@V?$allocator@UD3DXVECTOR2@@@std@@@0@@Z 004096f0 f i ObjMeshDX.obj
 0001:00008740       ??$_Uninit_move@PAUD3DXVECTOR2@@PAU1@V?$allocator@UD3DXVECTOR2@@@std@@U1@@std@@YAPAUD3DXVECTOR2@@PAU1@00AAU?$_Wrap_alloc@V?$allocator@UD3DXVECTOR2@@@std@@@0@0U_Nonscalar_ptr_iterator_tag@0@@Z 00409740 f i ObjMeshDX.obj
 0001:00008800       ??$_Uninit_move@PAUD3DXVECTOR3@@PAU1@U?$_Wrap_alloc@V?$allocator@UD3DXVECTOR3@@@std@@@std@@@std@@YAPAUD3DXVECTOR3@@PAU1@00AAU?$_Wrap_alloc@V?$allocator@UD3DXVECTOR3@@@std@@@0@@Z 00409800 f i ObjMeshDX.obj
 0001:00008850       ??$_Uninit_move@PAUD3DXVECTOR3@@PAU1@V?$allocator@UD3DXVECTOR3@@@std@@U1@@std@@YAPAUD3DXVECTOR3@@PAU1@00AAU?$_Wrap_alloc@V?$allocator@UD3DXVECTOR3@@@std@@@0@0U_Nonscalar_ptr_iterator_tag@0@@Z 00409850 f i ObjMeshDX.obj
 0001:00008910       ??$_Uninit_move@PAUMeshFace@@PAU1@U?$_Wrap_alloc@V?$allocator@UMeshFace@@@std@@@std@@@std@@YAPAUMeshFace@@PAU1@00AAU?$_Wrap_alloc@V?$allocator@UMeshFace@@@std@@@0@@Z 00409910 f i ObjMeshDX.obj
 0001:00008960       ??$_Uninit_move@PAUMeshFace@@PAU1@V?$allocator@UMeshFace@@@std@@U1@@std@@YAPAUMeshFace@@PAU1@00AAU?$_Wrap_alloc@V?$allocator@UMeshFace@@@std@@@0@0U_Nonscalar_ptr_iterator_tag@0@@Z 00409960 f i ObjMeshDX.obj
 0001:00008a20       ??$_Uninit_move@PAUMeshVertex@@PAU1@U?$_Wrap_alloc@V?$allocator@UMeshVertex@@@std@@@std@@@std@@YAPAUMeshVertex@@PAU1@00AAU?$_Wrap_alloc@V?$allocator@UMeshVertex@@@std@@@0@@Z 00409a20 f i ObjMeshDX.obj
 0001:00008a70       ??$_Uninit_move@PAUMeshVertex@@PAU1@V?$allocator@UMeshVertex@@@std@@U1@@std@@YAPAUMeshVertex@@PAU1@00AAU?$_Wrap_alloc@V?$allocator@UMeshVertex@@@std@@@0@0U_Nonscalar_ptr_iterator_tag@0@@Z 00409a70 f i ObjMeshDX.obj
 0001:00008b30       ??$_Uninit_move@PAUVertexFace@?3??ComputeVertexNormals@ObjMeshDX@@AAEXXZ@PAU1?3??23@AAEXXZ@U?$_Wrap_alloc@V?$allocator@UVertexFace@?3??ComputeVertexNormals@ObjMeshDX@@AAEXXZ@@std@@@std@@@std@@YAPAUVertexFace@?3??ComputeVertexNormals@ObjMeshDX@@AAEXXZ@PAU1?3??23@AAEXXZ@00AAU?$_Wrap_alloc@V?$allocator@UVertexFace@?3??ComputeVertexNormals@ObjMeshDX@@AAEXXZ@@std@@@0@@Z 00409b30 f i ObjMeshDX.obj
 0001:00008b80       ??$_Uninit_move@PAUVertexFace@?3??ComputeVertexNormals@ObjMeshDX@@AAEXXZ@PAU1?3??23@AAEXXZ@V?$allocator@UVertexFace@?3??ComputeVertexNormals@ObjMeshDX@@AAEXXZ@@std@@U1?3??23@AAEXXZ@@std@@YAPAUVertexFace@?3??ComputeVertexNormals@ObjMeshDX@@AAEXXZ@PAU1?3??23@AAEXXZ@00AAU?$_Wrap_alloc@V?$allocator@UVertexFace@?3??ComputeVertexNormals@ObjMeshDX@@AAEXXZ@@std@@@0@0U_Nonscalar_ptr_iterator_tag@0@@Z 00409b80 f i ObjMeshDX.obj
 0001:00008c40       ??$_Uninitialized_copy@V?$_Vector_const_iterator@V?$_Vector_val@U?$_Simple_types@H@std@@@std@@@std@@PAHU?$_Wrap_alloc@V?$allocator@H@std@@@2@@std@@YAPAHV?$_Vector_const_iterator@V?$_Vector_val@U?$_Simple_types@H@std@@@std@@@0@0PAHAAU?$_Wrap_alloc@V?$allocator@H@std@@@0@@Z 00409c40 f i ObjMeshDX.obj
 0001:00008c90       ??$_Uninitialized_default_fill_n@PAUD3DXVECTOR3@@IU?$_Wrap_alloc@V?$allocator@UD3DXVECTOR3@@@std@@@std@@@std@@YAXPAUD3DXVECTOR3@@IAAU?$_Wrap_alloc@V?$allocator@UD3DXVECTOR3@@@std@@@0@@Z 00409c90 f i ObjMeshDX.obj
 0001:00008ce0       ??$_Uninitialized_default_fill_n@PAUVertexFace@?3??ComputeVertexNormals@ObjMeshDX@@AAEXXZ@IU?$_Wrap_alloc@V?$allocator@UVertexFace@?3??ComputeVertexNormals@ObjMeshDX@@AAEXXZ@@std@@@std@@@std@@YAXPAUVertexFace@?3??ComputeVertexNormals@ObjMeshDX@@AAEXXZ@IAAU?$_Wrap_alloc@V?$allocator@UVertexFace@?3??ComputeVertexNormals@ObjMeshDX@@AAEXXZ@@std@@@0@@Z 00409ce0 f i ObjMeshDX.obj
 0001:00008d30       ??$_Uninitialized_move@PAPAUCacheEntry@@PAPAU1@U?$_Wrap_alloc@V?$allocator@PAUCacheEntry@@@std@@@std@@@std@@YAPAPAUCacheEntry@@PAPAU1@00AAU?$_Wrap_alloc@V?$allocator@PAUCacheEntry@@@std@@@0@@Z 00409d30 f i ObjMeshDX.obj
 0001:00008d30       ??$_Uninitialized_move@PAKPAKU?$_Wrap_alloc@V?$allocator@K@std@@@std@@@std@@YAPAKPAK00AAU?$_Wrap_alloc@V?$allocator@K@std@@@0@@Z 00409d30 f i ObjMeshDX.obj
 0001:00008d30       ??$_Uninitialized_move@PAPAVObjMeshDX@@PAPAV1@U?$_Wrap_alloc@V?$allocator@PAVObjMeshDX@@@std@@@std@@@std@@YAPAPAVObjMeshDX@@PAPAV1@00AAU?$_Wrap_alloc@V?$allocator@PAVObjMeshDX@@@std@@@0@@Z 00409d30 f i DeferredRenderer.obj
 0001:00008d30       ??$_Uninitialized_move@PAHPAHU?$_Wrap_alloc@V?$allocator@H@std@@@std@@@std@@YAPAHPAH00AAU?$_Wrap_alloc@V?$allocator@H@std@@@0@@Z 00409d30 f i ObjMeshDX.obj
 0001:00008d30       ??$_Uninitialized_move@PAPAUMaterial@@PAPAU1@U?$_Wrap_alloc@V?$allocator@PAUMaterial@@@std@@@std@@@std@@YAPAPAUMaterial@@PAPAU1@00AAU?$_Wrap_alloc@V?$allocator@PAUMaterial@@@std@@@0@@Z 00409d30 f i ObjMeshDX.obj
 0001:00008d80       ??$_Uninitialized_move@PAUD3DXVECTOR2@@PAU1@U?$_Wrap_alloc@V?$allocator@UD3DXVECTOR2@@@std@@@std@@@std@@YAPAUD3DXVECTOR2@@PAU1@00AAU?$_Wrap_alloc@V?$allocator@UD3DXVECTOR2@@@std@@@0@@Z 00409d80 f i ObjMeshDX.obj
 0001:00008dd0       ??$_Uninitialized_move@PAUD3DXVECTOR3@@PAU1@U?$_Wrap_alloc@V?$allocator@UD3DXVECTOR3@@@std@@@std@@@std@@YAPAUD3DXVECTOR3@@PAU1@00AAU?$_Wrap_alloc@V?$allocator@UD3DXVECTOR3@@@std@@@0@@Z 00409dd0 f i ObjMeshDX.obj
 0001:00008e20       ??$_Uninitialized_move@PAUMeshFace@@PAU1@U?$_Wrap_alloc@V?$allocator@UMeshFace@@@std@@@std@@@std@@YAPAUMeshFace@@PAU1@00AAU?$_Wrap_alloc@V?$allocator@UMeshFace@@@std@@@0@@Z 00409e20 f i ObjMeshDX.obj
 0001:00008e70       ??$_Uninitialized_move@PAUMeshVertex@@PAU1@U?$_Wrap_alloc@V?$allocator@UMeshVertex@@@std@@@std@@@std@@YAPAUMeshVertex@@PAU1@00AAU?$_Wrap_alloc@V?$allocator@UMeshVertex@@@std@@@0@@Z 00409e70 f i ObjMeshDX.obj
 0001:00008ec0       ??$_Uninitialized_move@PAUVertexFace@?3??ComputeVertexNormals@ObjMeshDX@@AAEXXZ@PAU1?3??23@AAEXXZ@U?$_Wrap_alloc@V?$allocator@UVertexFace@?3??ComputeVertexNormals@ObjMeshDX@@AAEXXZ@@std@@@std@@@std@@YAPAUVertexFace@?3??ComputeVertexNormals@ObjMeshDX@@AAEXXZ@PAU1?3??23@AAEXXZ@00AAU?$_Wrap_alloc@V?$allocator@UVertexFace@?3??ComputeVertexNormals@ObjMeshDX@@AAEXXZ@@std@@@0@@Z 00409ec0 f i ObjMeshDX.obj
 0001:00008f10       __wsetargv                 00409f10 f i MSVCRTD:wdllargv.obj
 0001:00008f10       ??$_Val_type@PAK@std@@YAPAKPAK@Z 00409f10 f i ObjMeshDX.obj
 0001:00008f10       __matherr                  00409f10 f i MSVCRTD:merr.obj
 0001:00008f10       ??$_Val_type@PAUMeshVertex@@@std@@YAPAUMeshVertex@@PAU1@@Z 00409f10 f i ObjMeshDX.obj
 0001:00008f10       ??$_Val_type@PAPAVObjMeshDX@@@std@@YAPAPAVObjMeshDX@@PAPAV1@@Z 00409f10 f i DeferredRenderer.obj
 0001:00008f10       ??$_Val_type@PAUD3DXVECTOR2@@@std@@YAPAUD3DXVECTOR2@@PAU1@@Z 00409f10 f i ObjMeshDX.obj
 0001:00008f10       ??$_Val_type@PAUMeshFace@@@std@@YAPAUMeshFace@@PAU1@@Z 00409f10 f i ObjMeshDX.obj
 0001:00008f10       ??$_Val_type@PAH@std@@YAPAHPAH@Z 00409f10 f i ObjMeshDX.obj
 0001:00008f10       ??$_Val_type@PAPAUMaterial@@@std@@YAPAPAUMaterial@@PAPAU1@@Z 00409f10 f i ObjMeshDX.obj
 0001:00008f10       ??$_Val_type@PAUVertexFace@?3??ComputeVertexNormals@ObjMeshDX@@AAEXXZ@@std@@YAPAUVertexFace@?3??ComputeVertexNormals@ObjMeshDX@@AAEXXZ@PAU1?3??23@AAEXXZ@@Z 00409f10 f i ObjMeshDX.obj
 0001:00008f10       ??$_Val_type@PAUD3DXVECTOR3@@@std@@YAPAUD3DXVECTOR3@@PAU1@@Z 00409f10 f i ObjMeshDX.obj
 0001:00008f10       ??$_Val_type@PAPAUCacheEntry@@@std@@YAPAPAUCacheEntry@@PAPAU1@@Z 00409f10 f i ObjMeshDX.obj
 0001:00008f20       ??$construct@PAUMaterial@@ABQAU1@@?$_Wrap_alloc@V?$allocator@PAUMaterial@@@std@@@std@@QAEXPAPAUMaterial@@ABQAU2@@Z 00409f20 f i ObjMeshDX.obj
 0001:00008f20       ??$construct@KABK@?$_Wrap_alloc@V?$allocator@K@std@@@std@@QAEXPAKABK@Z 00409f20 f i ObjMeshDX.obj
 0001:00008f20       ??$construct@PAVObjMeshDX@@ABQAV1@@?$_Wrap_alloc@V?$allocator@PAVObjMeshDX@@@std@@@std@@QAEXPAPAVObjMeshDX@@ABQAV2@@Z 00409f20 f i DeferredRenderer.obj
 0001:00008f20       ??$construct@HABH@?$_Wrap_alloc@V?$allocator@H@std@@@std@@QAEXPAHABH@Z 00409f20 f i ObjMeshDX.obj
 0001:00008f50       ??$construct@UD3DXVECTOR2@@U1@@?$_Wrap_alloc@V?$allocator@UD3DXVECTOR2@@@std@@@std@@QAEXPAUD3DXVECTOR2@@$$QAU2@@Z 00409f50 f i ObjMeshDX.obj
 0001:00008f80       ??$construct@UD3DXVECTOR2@@U1@@?$allocator@UD3DXVECTOR2@@@std@@QAEXPAUD3DXVECTOR2@@$$QAU2@@Z 00409f80 f i ObjMeshDX.obj
 0001:00009010       ??$construct@UD3DXVECTOR2@@U1@@?$allocator_traits@V?$allocator@UD3DXVECTOR2@@@std@@@std@@SAXAAV?$allocator@UD3DXVECTOR2@@@1@PAUD3DXVECTOR2@@$$QAU3@@Z 0040a010 f i ObjMeshDX.obj
 0001:00009030       ??$construct@UD3DXVECTOR3@@$$$V@?$allocator_traits@V?$allocator@UD3DXVECTOR3@@@std@@@std@@SAXAAV?$allocator@UD3DXVECTOR3@@@1@PAUD3DXVECTOR3@@@Z 0040a030 f i ObjMeshDX.obj
 0001:00009050       ??$construct@UD3DXVECTOR3@@U1@@?$_Wrap_alloc@V?$allocator@UD3DXVECTOR3@@@std@@@std@@QAEXPAUD3DXVECTOR3@@$$QAU2@@Z 0040a050 f i ObjMeshDX.obj
 0001:00009080       ??$construct@UD3DXVECTOR3@@U1@@?$allocator@UD3DXVECTOR3@@@std@@QAEXPAUD3DXVECTOR3@@$$QAU2@@Z 0040a080 f i ObjMeshDX.obj
 0001:00009120       ??$construct@UD3DXVECTOR3@@U1@@?$allocator_traits@V?$allocator@UD3DXVECTOR3@@@std@@@std@@SAXAAV?$allocator@UD3DXVECTOR3@@@1@PAUD3DXVECTOR3@@$$QAU3@@Z 0040a120 f i ObjMeshDX.obj
 0001:00009140       ??$construct@UMeshFace@@U1@@?$allocator@UMeshFace@@@std@@QAEXPAUMeshFace@@$$QAU2@@Z 0040a140 f i ObjMeshDX.obj
 0001:00009140       ??$construct@UMeshFace@@AAU1@@?$allocator@UMeshFace@@@std@@QAEXPAUMeshFace@@AAU2@@Z 0040a140 f i ObjMeshDX.obj
 0001:000091e0       ??$construct@UMeshFace@@AAU1@@?$allocator_traits@V?$allocator@UMeshFace@@@std@@@std@@SAXAAV?$allocator@UMeshFace@@@1@PAUMeshFace@@AAU3@@Z 0040a1e0 f i ObjMeshDX.obj
 0001:000091e0       ??$construct@UMeshFace@@U1@@?$allocator_traits@V?$allocator@UMeshFace@@@std@@@std@@SAXAAV?$allocator@UMeshFace@@@1@PAUMeshFace@@$$QAU3@@Z 0040a1e0 f i ObjMeshDX.obj
 0001:00009200       ??$construct@UMeshFace@@ABU1@@?$_Wrap_alloc@V?$allocator@UMeshFace@@@std@@@std@@QAEXPAUMeshFace@@ABU2@@Z 0040a200 f i ObjMeshDX.obj
 0001:00009230       ??$construct@UMeshFace@@ABU1@@?$allocator_traits@V?$allocator@UMeshFace@@@std@@@std@@SAXAAV?$allocator@UMeshFace@@@1@PAUMeshFace@@ABU3@@Z 0040a230 f i ObjMeshDX.obj
 0001:00009250       ??$construct@UMeshFace@@U1@@?$_Wrap_alloc@V?$allocator@UMeshFace@@@std@@@std@@QAEXPAUMeshFace@@$$QAU2@@Z 0040a250 f i ObjMeshDX.obj
 0001:00009250       ??$construct@UMeshFace@@AAU1@@?$_Wrap_alloc@V?$allocator@UMeshFace@@@std@@@std@@QAEXPAUMeshFace@@AAU2@@Z 0040a250 f i ObjMeshDX.obj
 0001:00009280       ??$construct@UMeshVertex@@ABU1@@?$_Wrap_alloc@V?$allocator@UMeshVertex@@@std@@@std@@QAEXPAUMeshVertex@@ABU2@@Z 0040a280 f i ObjMeshDX.obj
 0001:000092b0       ??$construct@UMeshVertex@@ABU1@@?$allocator_traits@V?$allocator@UMeshVertex@@@std@@@std@@SAXAAV?$allocator@UMeshVertex@@@1@PAUMeshVertex@@ABU3@@Z 0040a2b0 f i ObjMeshDX.obj
 0001:000092d0       ??$construct@UMeshVertex@@AAU1@@?$_Wrap_alloc@V?$allocator@UMeshVertex@@@std@@@std@@QAEXPAUMeshVertex@@AAU2@@Z 0040a2d0 f i ObjMeshDX.obj
 0001:000092d0       ??$construct@UMeshVertex@@U1@@?$_Wrap_alloc@V?$allocator@UMeshVertex@@@std@@@std@@QAEXPAUMeshVertex@@$$QAU2@@Z 0040a2d0 f i ObjMeshDX.obj
 0001:00009300       ??$construct@UMeshVertex@@U1@@?$allocator@UMeshVertex@@@std@@QAEXPAUMeshVertex@@$$QAU2@@Z 0040a300 f i ObjMeshDX.obj
 0001:00009300       ??$construct@UMeshVertex@@AAU1@@?$allocator@UMeshVertex@@@std@@QAEXPAUMeshVertex@@AAU2@@Z 0040a300 f i ObjMeshDX.obj
 0001:00009390       ??$construct@UMeshVertex@@U1@@?$allocator_traits@V?$allocator@UMeshVertex@@@std@@@std@@SAXAAV?$allocator@UMeshVertex@@@1@PAUMeshVertex@@$$QAU3@@Z 0040a390 f i ObjMeshDX.obj
 0001:00009390       ??$construct@UMeshVertex@@AAU1@@?$allocator_traits@V?$allocator@UMeshVertex@@@std@@@std@@SAXAAV?$allocator@UMeshVertex@@@1@PAUMeshVertex@@AAU3@@Z 0040a390 f i ObjMeshDX.obj
 0001:000093b0       ??$construct@UVertexFace@?3??ComputeVertexNormals@ObjMeshDX@@AAEXXZ@$$$V@?$allocator_traits@V?$allocator@UVertexFace@?3??ComputeVertexNormals@ObjMeshDX@@AAEXXZ@@std@@@std@@SAXAAV?$allocator@UVertexFace@?3??ComputeVertexNormals@ObjMeshDX@@AAEXXZ@@1@PAUVertexFace@?3??ComputeVertexNormals@ObjMeshDX@@AAEXXZ@@Z 0040a3b0 f i ObjMeshDX.obj
 0001:000093d0       ??$construct@UVertexFace@?3??ComputeVertexNormals@ObjMeshDX@@AAEXXZ@U1?3??23@AAEXXZ@@?$_Wrap_alloc@V?$allocator@UVertexFace@?3??ComputeVertexNormals@ObjMeshDX@@AAEXXZ@@std@@@std@@QAEXPAUVertexFace@?3??ComputeVertexNormals@ObjMeshDX@@AAEXXZ@$$QAU2?3??34@AAEXXZ@@Z 0040a3d0 f i ObjMeshDX.obj
 0001:00009400       ??$construct@UVertexFace@?3??ComputeVertexNormals@ObjMeshDX@@AAEXXZ@U1?3??23@AAEXXZ@@?$allocator@UVertexFace@?3??ComputeVertexNormals@ObjMeshDX@@AAEXXZ@@std@@QAEXPAUVertexFace@?3??ComputeVertexNormals@ObjMeshDX@@AAEXXZ@$$QAU2?3??34@AAEXXZ@@Z 0040a400 f i ObjMeshDX.obj
 0001:00009490       ??$construct@UVertexFace@?3??ComputeVertexNormals@ObjMeshDX@@AAEXXZ@U1?3??23@AAEXXZ@@?$allocator_traits@V?$allocator@UVertexFace@?3??ComputeVertexNormals@ObjMeshDX@@AAEXXZ@@std@@@std@@SAXAAV?$allocator@UVertexFace@?3??ComputeVertexNormals@ObjMeshDX@@AAEXXZ@@1@PAUVertexFace@?3??ComputeVertexNormals@ObjMeshDX@@AAEXXZ@$$QAU3?3??45@AAEXXZ@@Z 0040a490 f i ObjMeshDX.obj
 0001:000094b0       ??$destroy@PAD@?$allocator_traits@V?$allocator@D@std@@@std@@SAXAAV?$allocator@D@1@PAPAD@Z 0040a4b0 f i DeferredRenderer.obj
 0001:000094b0       ??$destroy@PAU?$_List_node@NPAX@std@@@?$allocator_traits@V?$allocator@U?$_List_node@NPAX@std@@@std@@@std@@SAXAAV?$allocator@U?$_List_node@NPAX@std@@@1@PAPAU?$_List_node@NPAX@1@@Z 0040a4b0 f i DeferredShadingMSAA.obj
 0001:000094b0       ??$destroy@UMeshFace@@@?$allocator_traits@V?$allocator@UMeshFace@@@std@@@std@@SAXAAV?$allocator@UMeshFace@@@1@PAUMeshFace@@@Z 0040a4b0 f i ObjMeshDX.obj
 0001:000094b0       ??$destroy@N@?$allocator_traits@V?$allocator@U?$_List_node@NPAX@std@@@std@@@std@@SAXAAV?$allocator@U?$_List_node@NPAX@std@@@1@PAN@Z 0040a4b0 f i DeferredShadingMSAA.obj
 0001:000094b0       ??$destroy@UMeshVertex@@@?$allocator_traits@V?$allocator@UMeshVertex@@@std@@@std@@SAXAAV?$allocator@UMeshVertex@@@1@PAUMeshVertex@@@Z 0040a4b0 f i ObjMeshDX.obj
 0001:000094b0       ??$destroy@PAU?$_List_node@PAVIVisualController@@PAX@std@@@?$allocator_traits@V?$allocator@U?$_List_node@PAVIVisualController@@PAX@std@@@std@@@std@@SAXAAV?$allocator@U?$_List_node@PAVIVisualController@@PAX@std@@@1@PAPAU?$_List_node@PAVIVisualController@@PAX@1@@Z 0040a4b0 f i DeferredShadingMSAA.obj
 0001:000094b0       ??$destroy@PA_W@?$allocator_traits@V?$allocator@_W@std@@@std@@SAXAAV?$allocator@_W@1@PAPA_W@Z 0040a4b0 f i DeferredShadingMSAA.obj
 0001:000094b0       ??$destroy@UD3DXVECTOR3@@@?$allocator_traits@V?$allocator@UD3DXVECTOR3@@@std@@@std@@SAXAAV?$allocator@UD3DXVECTOR3@@@1@PAUD3DXVECTOR3@@@Z 0040a4b0 f i ObjMeshDX.obj
 0001:000094b0       ??$destroy@UD3DXVECTOR2@@@?$allocator_traits@V?$allocator@UD3DXVECTOR2@@@std@@@std@@SAXAAV?$allocator@UD3DXVECTOR2@@@1@PAUD3DXVECTOR2@@@Z 0040a4b0 f i ObjMeshDX.obj
 0001:000094b0       ??$destroy@PAVIVisualController@@@?$allocator_traits@V?$allocator@U?$_List_node@PAVIVisualController@@PAX@std@@@std@@@std@@SAXAAV?$allocator@U?$_List_node@PAVIVisualController@@PAX@std@@@1@PAPAVIVisualController@@@Z 0040a4b0 f i DeferredShadingMSAA.obj
 0001:000094d0       ??$destroy@UVertexFace@?3??ComputeVertexNormals@ObjMeshDX@@AAEXXZ@@?$_Wrap_alloc@V?$allocator@UVertexFace@?3??ComputeVertexNormals@ObjMeshDX@@AAEXXZ@@std@@@std@@QAEXPAUVertexFace@?3??ComputeVertexNormals@ObjMeshDX@@AAEXXZ@@Z 0040a4d0 f i ObjMeshDX.obj
 0001:000094f0       ??$destroy@UVertexFace@?3??ComputeVertexNormals@ObjMeshDX@@AAEXXZ@@?$allocator@UVertexFace@?3??ComputeVertexNormals@ObjMeshDX@@AAEXXZ@@std@@QAEXPAUVertexFace@?3??ComputeVertexNormals@ObjMeshDX@@AAEXXZ@@Z 0040a4f0 f i ObjMeshDX.obj
 0001:00009510       ??$destroy@UVertexFace@?3??ComputeVertexNormals@ObjMeshDX@@AAEXXZ@@?$allocator_traits@V?$allocator@UVertexFace@?3??ComputeVertexNormals@ObjMeshDX@@AAEXXZ@@std@@@std@@SAXAAV?$allocator@UVertexFace@?3??ComputeVertexNormals@ObjMeshDX@@AAEXXZ@@1@PAUVertexFace@?3??ComputeVertexNormals@ObjMeshDX@@AAEXXZ@@Z 0040a510 f i ObjMeshDX.obj
 0001:00009530       ??$use_facet@V?$codecvt@_WDH@std@@@std@@YAABV?$codecvt@_WDH@0@ABVlocale@0@@Z 0040a530 f i ObjMeshDX.obj
 0001:00009630       ??$use_facet@V?$ctype@_W@std@@@std@@YAABV?$ctype@_W@0@ABVlocale@0@@Z 0040a630 f i ObjMeshDX.obj
 0001:00009730       ??0?$_String_const_iterator@V?$_String_val@U?$_Simple_types@D@std@@@std@@@std@@QAE@PBDPBU_Container_base0@1@@Z 0040a730 f i ObjMeshDX.obj
 0001:00009760       ??0?$_String_iterator@V?$_String_val@U?$_Simple_types@D@std@@@std@@@std@@QAE@PADPBU_Container_base0@1@@Z 0040a760 f i ObjMeshDX.obj
 0001:00009780       ??0?$_Vector_val@U?$_Simple_types@H@std@@@std@@QAE@XZ 0040a780 f i ObjMeshDX.obj
 0001:00009780       ??0?$_Vector_val@U?$_Simple_types@K@std@@@std@@QAE@XZ 0040a780 f i ObjMeshDX.obj
 0001:00009780       ??0?$_Vector_val@U?$_Simple_types@UD3DXVECTOR3@@@std@@@std@@QAE@XZ 0040a780 f i ObjMeshDX.obj
 0001:00009780       ??0?$_Vector_val@U?$_Simple_types@PAUCacheEntry@@@std@@@std@@QAE@XZ 0040a780 f i ObjMeshDX.obj
 0001:00009780       ??0?$_Vector_val@U?$_Simple_types@UMeshFace@@@std@@@std@@QAE@XZ 0040a780 f i ObjMeshDX.obj
 0001:00009780       ??0?$_Vector_val@U?$_Simple_types@UMeshVertex@@@std@@@std@@QAE@XZ 0040a780 f i ObjMeshDX.obj
 0001:00009780       ??0?$_Vector_val@U?$_Simple_types@UVertexFace@?3??ComputeVertexNormals@ObjMeshDX@@AAEXXZ@@std@@@std@@QAE@XZ 0040a780 f i ObjMeshDX.obj
 0001:00009780       ??0?$_Vector_val@U?$_Simple_types@PAVObjMeshDX@@@std@@@std@@QAE@XZ 0040a780 f i DeferredRenderer.obj
 0001:00009780       ??0?$_Vector_val@U?$_Simple_types@UD3DXVECTOR2@@@std@@@std@@QAE@XZ 0040a780 f i ObjMeshDX.obj
 0001:00009780       ??0?$_Vector_val@U?$_Simple_types@PAUMaterial@@@std@@@std@@QAE@XZ 0040a780 f i ObjMeshDX.obj
 0001:000097b0       ??0?$_Wrap_alloc@V?$allocator@H@std@@@std@@QAE@ABV?$allocator@H@1@@Z 0040a7b0 f i ObjMeshDX.obj
 0001:000097d0       ??0?$_Wrap_alloc@V?$allocator@UD3DXVECTOR2@@@std@@@std@@QAE@XZ 0040a7d0 f i ObjMeshDX.obj
 0001:000097d0       ??0?$_Wrap_alloc@V?$allocator@PAUMaterial@@@std@@@std@@QAE@XZ 0040a7d0 f i ObjMeshDX.obj
 0001:000097d0       ??0?$_Wrap_alloc@V?$allocator@H@std@@@std@@QAE@XZ 0040a7d0 f i ObjMeshDX.obj
 0001:000097d0       ??0?$_Wrap_alloc@V?$allocator@PAVObjMeshDX@@@std@@@std@@QAE@XZ 0040a7d0 f i DeferredRenderer.obj
 0001:000097d0       ??0?$_Wrap_alloc@V?$allocator@_W@std@@@std@@QAE@XZ 0040a7d0 f i DeferredShadingMSAA.obj
 0001:000097d0       ??0?$_Wrap_alloc@V?$allocator@UVertexFace@?3??ComputeVertexNormals@ObjMeshDX@@AAEXXZ@@std@@@std@@QAE@XZ 0040a7d0 f i ObjMeshDX.obj
 0001:000097d0       ??0?$_Wrap_alloc@V?$allocator@U?$_List_node@NPAX@std@@@std@@@std@@QAE@XZ 0040a7d0 f i DeferredShadingMSAA.obj
 0001:000097d0       ??0?$_Wrap_alloc@V?$allocator@UD3DXVECTOR3@@@std@@@std@@QAE@XZ 0040a7d0 f i ObjMeshDX.obj
 0001:000097d0       ??0?$_Wrap_alloc@V?$allocator@PAUCacheEntry@@@std@@@std@@QAE@XZ 0040a7d0 f i ObjMeshDX.obj
 0001:000097d0       ??0?$_Wrap_alloc@V?$allocator@UMeshVertex@@@std@@@std@@QAE@XZ 0040a7d0 f i ObjMeshDX.obj
 0001:000097d0       ??0?$_Wrap_alloc@V?$allocator@K@std@@@std@@QAE@XZ 0040a7d0 f i ObjMeshDX.obj
 0001:000097d0       ??0?$_Wrap_alloc@V?$allocator@UMeshFace@@@std@@@std@@QAE@XZ 0040a7d0 f i ObjMeshDX.obj
 0001:000097d0       ??0?$_Wrap_alloc@V?$allocator@D@std@@@std@@QAE@XZ 0040a7d0 f i DeferredRenderer.obj
 0001:000097d0       ??0_D3DXMATRIXA16@@QAE@XZ  0040a7d0 f i nvidiautilsDEBUG:Camera.obj
 0001:000097d0       ??0?$_Wrap_alloc@V?$allocator@U?$_List_node@PAVIVisualController@@PAX@std@@@std@@@std@@QAE@XZ 0040a7d0 f i DeferredShadingMSAA.obj
 0001:000097f0       ??0?$allocator@H@std@@QAE@ABV01@@Z 0040a7f0 f i ObjMeshDX.obj
 0001:00009800       ??0?$basic_filebuf@_WU?$char_traits@_W@std@@@std@@QAE@PAU_iobuf@@@Z 0040a800 f i ObjMeshDX.obj
 0001:00009870       ??0?$basic_ifstream@_WU?$char_traits@_W@std@@@std@@QAE@PB_WHH@Z 0040a870 f i ObjMeshDX.obj
 0001:00009980       ??0?$basic_string@DU?$char_traits@D@std@@V?$allocator@D@2@@std@@QAE@ID@Z 0040a980 f i ObjMeshDX.obj
 0001:000099c0       ??0?$basic_string@DU?$char_traits@D@std@@V?$allocator@D@2@@std@@QAE@XZ 0040a9c0 f i ObjMeshDX.obj
 0001:000099f0       ??0?$fpos@H@std@@QAE@H_J@Z 0040a9f0 f i ObjMeshDX.obj
 0001:00009a30       ??0?$fpos@H@std@@QAE@_J@Z  0040aa30 f i ObjMeshDX.obj
 0001:00009a70       ??0?$vector@HV?$allocator@H@std@@@std@@QAE@ABV01@@Z 0040aa70 f i ObjMeshDX.obj
 0001:00009b60       ??0?$vector@KV?$allocator@K@std@@@std@@QAE@XZ 0040ab60 f i ObjMeshDX.obj
 0001:00009b60       ??0?$vector@PAUCacheEntry@@V?$allocator@PAUCacheEntry@@@std@@@std@@QAE@XZ 0040ab60 f i ObjMeshDX.obj
 0001:00009b60       ??0?$vector@UD3DXVECTOR2@@V?$allocator@UD3DXVECTOR2@@@std@@@std@@QAE@XZ 0040ab60 f i ObjMeshDX.obj
 0001:00009b60       ??0?$vector@PAUMaterial@@V?$allocator@PAUMaterial@@@std@@@std@@QAE@XZ 0040ab60 f i ObjMeshDX.obj
 0001:00009b60       ??0?$vector@UMeshVertex@@V?$allocator@UMeshVertex@@@std@@@std@@QAE@XZ 0040ab60 f i ObjMeshDX.obj
 0001:00009b60       ??0?$vector@UD3DXVECTOR3@@V?$allocator@UD3DXVECTOR3@@@std@@@std@@QAE@XZ 0040ab60 f i ObjMeshDX.obj
 0001:00009b60       ??0?$vector@UMeshFace@@V?$allocator@UMeshFace@@@std@@@std@@QAE@XZ 0040ab60 f i ObjMeshDX.obj
 0001:00009b60       ??0?$vector@HV?$allocator@H@std@@@std@@QAE@XZ 0040ab60 f i ObjMeshDX.obj
 0001:00009b60       ??0?$vector@UVertexFace@?3??ComputeVertexNormals@ObjMeshDX@@AAEXXZ@V?$allocator@UVertexFace@?3??ComputeVertexNormals@ObjMeshDX@@AAEXXZ@@std@@@std@@QAE@XZ 0040ab60 f i ObjMeshDX.obj
 0001:00009b60       ??0?$vector@PAVObjMeshDX@@V?$allocator@PAVObjMeshDX@@@std@@@std@@QAE@XZ 0040ab60 f i DeferredRenderer.obj
 0001:00009b90       ??0D3DX11_IMAGE_LOAD_INFO@@QAE@XZ 0040ab90 f i ObjMeshDX.obj
 0001:00009c20       ??0D3DXVECTOR2@@QAE@MM@Z   0040ac20 f i ObjMeshDX.obj
 0001:00009c50       ??0Material@@QAE@XZ        0040ac50 f i ObjMeshDX.obj
 0001:00009cb0       ??0MeshVertex@@QAE@XZ      0040acb0 f i ObjMeshDX.obj
 0001:00009ce0       ??0VertexFace@?3??ComputeVertexNormals@ObjMeshDX@@AAEXXZ@QAE@ABU0?3??12@AAEXXZ@@Z 0040ace0 f i ObjMeshDX.obj
 0001:00009d10       ??0_Sentry_base@?$basic_istream@_WU?$char_traits@_W@std@@@std@@QAE@AAV12@@Z 0040ad10 f i ObjMeshDX.obj
 0001:00009d70       ??0sentry@?$basic_istream@_WU?$char_traits@_W@std@@@std@@QAE@AAV12@_N@Z 0040ad70 f i ObjMeshDX.obj
 0001:00009de0       ??1?$basic_filebuf@_WU?$char_traits@_W@std@@@std@@UAE@XZ 0040ade0 f i ObjMeshDX.obj
 0001:00009e30       ??1?$basic_ifstream@_WU?$char_traits@_W@std@@@std@@UAE@XZ 0040ae30 f i ObjMeshDX.obj
 0001:00009e90       ??1?$basic_string@DU?$char_traits@D@std@@V?$allocator@D@2@@std@@QAE@XZ 0040ae90 f i ObjMeshDX.obj
 0001:00009eb0       ??1?$vector@PAUCacheEntry@@V?$allocator@PAUCacheEntry@@@std@@@std@@QAE@XZ 0040aeb0 f i ObjMeshDX.obj
 0001:00009eb0       ??1?$vector@KV?$allocator@K@std@@@std@@QAE@XZ 0040aeb0 f i ObjMeshDX.obj
 0001:00009eb0       ??1?$vector@HV?$allocator@H@std@@@std@@QAE@XZ 0040aeb0 f i ObjMeshDX.obj
 0001:00009eb0       ??1?$vector@PAVObjMeshDX@@V?$allocator@PAVObjMeshDX@@@std@@@std@@QAE@XZ 0040aeb0 f i DeferredRenderer.obj
 0001:00009eb0       ??1?$vector@PAUMaterial@@V?$allocator@PAUMaterial@@@std@@@std@@QAE@XZ 0040aeb0 f i ObjMeshDX.obj
 0001:00009ed0       ??1?$vector@UD3DXVECTOR2@@V?$allocator@UD3DXVECTOR2@@@std@@@std@@QAE@XZ 0040aed0 f i ObjMeshDX.obj
 0001:00009ef0       ??1?$vector@UD3DXVECTOR3@@V?$allocator@UD3DXVECTOR3@@@std@@@std@@QAE@XZ 0040aef0 f i ObjMeshDX.obj
 0001:00009f10       ??1?$vector@UMeshFace@@V?$allocator@UMeshFace@@@std@@@std@@QAE@XZ 0040af10 f i ObjMeshDX.obj
 0001:00009f30       ??1?$vector@UMeshVertex@@V?$allocator@UMeshVertex@@@std@@@std@@QAE@XZ 0040af30 f i ObjMeshDX.obj
 0001:00009f50       ??1?$vector@UVertexFace@?3??ComputeVertexNormals@ObjMeshDX@@AAEXXZ@V?$allocator@UVertexFace@?3??ComputeVertexNormals@ObjMeshDX@@AAEXXZ@@std@@@std@@QAE@XZ 0040af50 f i ObjMeshDX.obj
 0001:00009f70       ??1VertexFace@?3??ComputeVertexNormals@ObjMeshDX@@AAEXXZ@QAE@XZ 0040af70 f i ObjMeshDX.obj
 0001:00009f90       ??1_Sentry_base@?$basic_istream@_WU?$char_traits@_W@std@@@std@@QAE@XZ 0040af90 f i ObjMeshDX.obj
 0001:00009ff0       ??1locale@std@@QAE@XZ      0040aff0 f i ObjMeshDX.obj
 0001:0000a020       ??1sentry@?$basic_istream@_WU?$char_traits@_W@std@@@std@@QAE@XZ 0040b020 f i ObjMeshDX.obj
 0001:0000a040       ??8D3DXVECTOR3@@QBEHABU0@@Z 0040b040 f i ObjMeshDX.obj
 0001:0000a0a0       ??9D3DXVECTOR3@@QBEHABU0@@Z 0040b0a0 f i ObjMeshDX.obj
 0001:0000a100       ??A?$vector@PAUCacheEntry@@V?$allocator@PAUCacheEntry@@@std@@@std@@QAEAAPAUCacheEntry@@I@Z 0040b100 f i ObjMeshDX.obj
 0001:0000a100       ??A?$vector@HV?$allocator@H@std@@@std@@QAEAAHI@Z 0040b100 f i ObjMeshDX.obj
 0001:0000a100       ??A?$vector@PAVObjMeshDX@@V?$allocator@PAVObjMeshDX@@@std@@@std@@QAEAAPAVObjMeshDX@@I@Z 0040b100 f i DeferredRenderer.obj
 0001:0000a100       ??A?$vector@KV?$allocator@K@std@@@std@@QAEAAKI@Z 0040b100 f i ObjMeshDX.obj
 0001:0000a100       ??A?$vector@PAUMaterial@@V?$allocator@PAUMaterial@@@std@@@std@@QAEAAPAUMaterial@@I@Z 0040b100 f i ObjMeshDX.obj
 0001:0000a100       ??A?$vector@PAUMaterial@@V?$allocator@PAUMaterial@@@std@@@std@@QBEABQAUMaterial@@I@Z 0040b100 f i ObjMeshDX.obj
 0001:0000a100       ??A?$vector@KV?$allocator@K@std@@@std@@QBEABKI@Z 0040b100 f i ObjMeshDX.obj
 0001:0000a120       ??A?$vector@UD3DXVECTOR2@@V?$allocator@UD3DXVECTOR2@@@std@@@std@@QAEAAUD3DXVECTOR2@@I@Z 0040b120 f i ObjMeshDX.obj
 0001:0000a140       ??A?$vector@UD3DXVECTOR3@@V?$allocator@UD3DXVECTOR3@@@std@@@std@@QAEAAUD3DXVECTOR3@@I@Z 0040b140 f i ObjMeshDX.obj
 0001:0000a160       ??A?$vector@UMeshVertex@@V?$allocator@UMeshVertex@@@std@@@std@@QAEAAUMeshVertex@@I@Z 0040b160 f i ObjMeshDX.obj
 0001:0000a160       ??A?$vector@UMeshVertex@@V?$allocator@UMeshVertex@@@std@@@std@@QBEABUMeshVertex@@I@Z 0040b160 f i ObjMeshDX.obj
 0001:0000a180       ??A?$vector@UMeshFace@@V?$allocator@UMeshFace@@@std@@@std@@QAEAAUMeshFace@@I@Z 0040b180 f i ObjMeshDX.obj
 0001:0000a180       ??A?$vector@UVertexFace@?3??ComputeVertexNormals@ObjMeshDX@@AAEXXZ@V?$allocator@UVertexFace@?3??ComputeVertexNormals@ObjMeshDX@@AAEXXZ@@std@@@std@@QAEAAUVertexFace@?3??ComputeVertexNormals@ObjMeshDX@@AAEXXZ@I@Z 0040b180 f i ObjMeshDX.obj
 0001:0000a1a0       ??B?$fpos@H@std@@QBE_JXZ   0040b1a0 f i ObjMeshDX.obj
 0001:0000a1d0       ?IsEnabled@IVisualController@@UAE_NXZ 0040b1d0 f i DeferredRenderer.obj
 0001:0000a1d0       ??Bsentry@?$basic_istream@_WU?$char_traits@_W@std@@@std@@QBE_NXZ 0040b1d0 f i ObjMeshDX.obj
 0001:0000a1f0       ??D?$_String_iterator@V?$_String_val@U?$_Simple_types@D@std@@@std@@@std@@QBEAADXZ 0040b1f0 f i ObjMeshDX.obj
 0001:0000a210       ??D@YA?AUD3DXVECTOR3@@MABU0@@Z 0040b210 f i ObjMeshDX.obj
 0001:0000a260       ??GD3DXVECTOR3@@QBE?AU0@ABU0@@Z 0040b260 f i ObjMeshDX.obj
 0001:0000a2c0       ??HD3DXVECTOR3@@QBE?AU0@ABU0@@Z 0040b2c0 f i ObjMeshDX.obj
 0001:0000a320       ??YD3DXVECTOR3@@QAEAAU0@ABU0@@Z 0040b320 f i ObjMeshDX.obj
 0001:0000a380       ??ZD3DXVECTOR3@@QAEAAU0@ABU0@@Z 0040b380 f i ObjMeshDX.obj
 0001:0000a3e0       ??_0D3DXVECTOR3@@QAEAAU0@M@Z 0040b3e0 f i ObjMeshDX.obj
 0001:0000a450       ??_D?$basic_ifstream@_WU?$char_traits@_W@std@@@std@@QAEXXZ 0040b450 f i ObjMeshDX.obj
 0001:0000a472       ??_E?$basic_ifstream@_WU?$char_traits@_W@std@@@std@@$4PPPPPPPM@A@AEPAXI@Z 0040b472 f i ObjMeshDX.obj
 0001:0000a480       ??_E?$basic_filebuf@_WU?$char_traits@_W@std@@@std@@UAEPAXI@Z 0040b480 f i ObjMeshDX.obj
 0001:0000a480       ??_G?$basic_filebuf@_WU?$char_traits@_W@std@@@std@@UAEPAXI@Z 0040b480 f i ObjMeshDX.obj
 0001:0000a4b0       ??_G?$basic_ifstream@_WU?$char_traits@_W@std@@@std@@UAEPAXI@Z 0040b4b0 f i ObjMeshDX.obj
 0001:0000a4b0       ??_E?$basic_ifstream@_WU?$char_traits@_W@std@@@std@@UAEPAXI@Z 0040b4b0 f i ObjMeshDX.obj
 0001:0000a4f0       ??_GVertexFace@?3??ComputeVertexNormals@ObjMeshDX@@AAEXXZ@QAEPAXI@Z 0040b4f0 f i ObjMeshDX.obj
 0001:0000a520       ?D3DXVec3Cross@@YAPAUD3DXVECTOR3@@PAU1@PBU1@1@Z 0040b520 f i ObjMeshDX.obj
 0001:0000a5e0       ?GetVertexAt@ObjMeshDX@@ABEABUMeshVertex@@H@Z 0040b5e0 f i ObjMeshDX.obj
 0001:0000a600       ?_Buy@?$vector@HV?$allocator@H@std@@@std@@IAE_NI@Z 0040b600 f i ObjMeshDX.obj
 0001:0000a690       ?_Chassign@?$basic_string@DU?$char_traits@D@std@@V?$allocator@D@2@@std@@QAEXIID@Z 0040b690 f i ObjMeshDX.obj
 0001:0000a6e0       ?_Destroy@?$vector@PAVObjMeshDX@@V?$allocator@PAVObjMeshDX@@@std@@@std@@IAEXPAPAVObjMeshDX@@0@Z 0040b6e0 f i DeferredRenderer.obj
 0001:0000a6e0       ?_Destroy@?$vector@PAUMaterial@@V?$allocator@PAUMaterial@@@std@@@std@@IAEXPAPAUMaterial@@0@Z 0040b6e0 f i ObjMeshDX.obj
 0001:0000a6e0       ?_Destroy@?$vector@KV?$allocator@K@std@@@std@@IAEXPAK0@Z 0040b6e0 f i ObjMeshDX.obj
 0001:0000a6e0       ?_Destroy@?$vector@PAUCacheEntry@@V?$allocator@PAUCacheEntry@@@std@@@std@@IAEXPAPAUCacheEntry@@0@Z 0040b6e0 f i ObjMeshDX.obj
 0001:0000a6e0       ?_Destroy@?$vector@HV?$allocator@H@std@@@std@@IAEXPAH0@Z 0040b6e0 f i ObjMeshDX.obj
 0001:0000a710       ?_Destroy@?$vector@UD3DXVECTOR2@@V?$allocator@UD3DXVECTOR2@@@std@@@std@@IAEXPAUD3DXVECTOR2@@0@Z 0040b710 f i ObjMeshDX.obj
 0001:0000a740       ?_Destroy@?$vector@UD3DXVECTOR3@@V?$allocator@UD3DXVECTOR3@@@std@@@std@@IAEXPAUD3DXVECTOR3@@0@Z 0040b740 f i ObjMeshDX.obj
 0001:0000a770       ?_Destroy@?$vector@UMeshFace@@V?$allocator@UMeshFace@@@std@@@std@@IAEXPAUMeshFace@@0@Z 0040b770 f i ObjMeshDX.obj
 0001:0000a7a0       ?_Destroy@?$vector@UMeshVertex@@V?$allocator@UMeshVertex@@@std@@@std@@IAEXPAUMeshVertex@@0@Z 0040b7a0 f i ObjMeshDX.obj
 0001:0000a7d0       ?_Destroy@?$vector@UVertexFace@?3??ComputeVertexNormals@ObjMeshDX@@AAEXXZ@V?$allocator@UVertexFace@?3??ComputeVertexNormals@ObjMeshDX@@AAEXXZ@@std@@@std@@IAEXPAUVertexFace@?3??ComputeVertexNormals@ObjMeshDX@@AAEXXZ@0@Z 0040b7d0 f i ObjMeshDX.obj
 0001:0000a800       ?_Endwrite@?$basic_filebuf@_WU?$char_traits@_W@std@@@std@@IAE_NXZ 0040b800 f i ObjMeshDX.obj
 0001:0000aa10       ?_Getfacet@locale@std@@QBEPBVfacet@12@I@Z 0040ba10 f i ObjMeshDX.obj
 0001:0000aaa0       ?_Grow_to@?$vector@PAUCacheEntry@@V?$allocator@PAUCacheEntry@@@std@@@std@@IBEII@Z 0040baa0 f i ObjMeshDX.obj
 0001:0000aaa0       ?_Grow_to@?$vector@PAUMaterial@@V?$allocator@PAUMaterial@@@std@@@std@@IBEII@Z 0040baa0 f i ObjMeshDX.obj
 0001:0000aaa0       ?_Grow_to@?$vector@PAVObjMeshDX@@V?$allocator@PAVObjMeshDX@@@std@@@std@@IBEII@Z 0040baa0 f i DeferredRenderer.obj
 0001:0000aaa0       ?_Grow_to@?$vector@HV?$allocator@H@std@@@std@@IBEII@Z 0040baa0 f i ObjMeshDX.obj
 0001:0000aaa0       ?_Grow_to@?$vector@KV?$allocator@K@std@@@std@@IBEII@Z 0040baa0 f i ObjMeshDX.obj
 0001:0000ab00       ?_Grow_to@?$vector@UD3DXVECTOR2@@V?$allocator@UD3DXVECTOR2@@@std@@@std@@IBEII@Z 0040bb00 f i ObjMeshDX.obj
 0001:0000ab60       ?_Grow_to@?$vector@UD3DXVECTOR3@@V?$allocator@UD3DXVECTOR3@@@std@@@std@@IBEII@Z 0040bb60 f i ObjMeshDX.obj
 0001:0000abc0       ?_Grow_to@?$vector@UMeshFace@@V?$allocator@UMeshFace@@@std@@@std@@IBEII@Z 0040bbc0 f i ObjMeshDX.obj
 0001:0000abc0       ?_Grow_to@?$vector@UVertexFace@?3??ComputeVertexNormals@ObjMeshDX@@AAEXXZ@V?$allocator@UVertexFace@?3??ComputeVertexNormals@ObjMeshDX@@AAEXXZ@@std@@@std@@IBEII@Z 0040bbc0 f i ObjMeshDX.obj
 0001:0000ac20       ?_Grow_to@?$vector@UMeshVertex@@V?$allocator@UMeshVertex@@@std@@@std@@IBEII@Z 0040bc20 f i ObjMeshDX.obj
 0001:0000ac80       ?_Init@?$basic_filebuf@_WU?$char_traits@_W@std@@@std@@IAEXPAU_iobuf@@W4_Initfl@12@@Z 0040bc80 f i ObjMeshDX.obj
 0001:0000ad30       ?_Initcvt@?$basic_filebuf@_WU?$char_traits@_W@std@@@std@@IAEXPBV?$codecvt@_WDH@2@@Z 0040bd30 f i ObjMeshDX.obj
 0001:0000ad70       ?_Inside@?$vector@UD3DXVECTOR2@@V?$allocator@UD3DXVECTOR2@@@std@@@std@@IBE_NPBUD3DXVECTOR2@@@Z 0040bd70 f i ObjMeshDX.obj
 0001:0000ad70       ?_Inside@?$vector@KV?$allocator@K@std@@@std@@IBE_NPBK@Z 0040bd70 f i ObjMeshDX.obj
 0001:0000ad70       ?_Inside@?$vector@PAUMaterial@@V?$allocator@PAUMaterial@@@std@@@std@@IBE_NPBQAUMaterial@@@Z 0040bd70 f i ObjMeshDX.obj
 0001:0000ad70       ?_Inside@?$vector@PAVObjMeshDX@@V?$allocator@PAVObjMeshDX@@@std@@@std@@IBE_NPBQAVObjMeshDX@@@Z 0040bd70 f i DeferredRenderer.obj
 0001:0000ad70       ?_Inside@?$vector@HV?$allocator@H@std@@@std@@IBE_NPBH@Z 0040bd70 f i ObjMeshDX.obj
 0001:0000ad70       ?_Inside@?$vector@UMeshVertex@@V?$allocator@UMeshVertex@@@std@@@std@@IBE_NPBUMeshVertex@@@Z 0040bd70 f i ObjMeshDX.obj
 0001:0000ad70       ?_Inside@?$vector@PAUCacheEntry@@V?$allocator@PAUCacheEntry@@@std@@@std@@IBE_NPBQAUCacheEntry@@@Z 0040bd70 f i ObjMeshDX.obj
 0001:0000ad70       ?_Inside@?$vector@UD3DXVECTOR3@@V?$allocator@UD3DXVECTOR3@@@std@@@std@@IBE_NPBUD3DXVECTOR3@@@Z 0040bd70 f i ObjMeshDX.obj
 0001:0000ad70       ?_Inside@?$vector@UMeshFace@@V?$allocator@UMeshFace@@@std@@@std@@IBE_NPBUMeshFace@@@Z 0040bd70 f i ObjMeshDX.obj
 0001:0000adb0       ?_Lock@?$basic_filebuf@_WU?$char_traits@_W@std@@@std@@UAEXXZ 0040bdb0 f i ObjMeshDX.obj
 0001:0000ade0       ?_Orphan_range@?$vector@PAVObjMeshDX@@V?$allocator@PAVObjMeshDX@@@std@@@std@@IBEXPAPAVObjMeshDX@@0@Z 0040bde0 f i DeferredRenderer.obj
 0001:0000ade0       ?BackBufferResized@IVisualController@@UAEXPAUID3D11Device@@PBUDXGI_SURFACE_DESC@@@Z 0040bde0 f i DeferredRenderer.obj
 0001:0000ade0       ?Animate@IVisualController@@UAEXN@Z 0040bde0 f i DeferredRenderer.obj
 0001:0000ade0       ?_Orphan_range@?$vector@UMeshVertex@@V?$allocator@UMeshVertex@@@std@@@std@@IBEXPAUMeshVertex@@0@Z 0040bde0 f i ObjMeshDX.obj
 0001:0000ade0       ?_Orphan_range@?$vector@PAUCacheEntry@@V?$allocator@PAUCacheEntry@@@std@@@std@@IBEXPAPAUCacheEntry@@0@Z 0040bde0 f i ObjMeshDX.obj
 0001:0000ade0       ?_Orphan_range@?$vector@PAUMaterial@@V?$allocator@PAUMaterial@@@std@@@std@@IBEXPAPAUMaterial@@0@Z 0040bde0 f i ObjMeshDX.obj
 0001:0000ade0       ?_Orphan_range@?$vector@HV?$allocator@H@std@@@std@@IBEXPAH0@Z 0040bde0 f i ObjMeshDX.obj
 0001:0000ade0       ?_Orphan_range@?$vector@UD3DXVECTOR3@@V?$allocator@UD3DXVECTOR3@@@std@@@std@@IBEXPAUD3DXVECTOR3@@0@Z 0040bde0 f i ObjMeshDX.obj
 0001:0000ade0       ?_Orphan_range@?$vector@UD3DXVECTOR2@@V?$allocator@UD3DXVECTOR2@@@std@@@std@@IBEXPAUD3DXVECTOR2@@0@Z 0040bde0 f i ObjMeshDX.obj
 0001:0000ade0       ?_Orphan_range@?$vector@KV?$allocator@K@std@@@std@@IBEXPAK0@Z 0040bde0 f i ObjMeshDX.obj
 0001:0000ade0       ?_Orphan_range@?$vector@UMeshFace@@V?$allocator@UMeshFace@@@std@@@std@@IBEXPAUMeshFace@@0@Z 0040bde0 f i ObjMeshDX.obj
 0001:0000adf0       ?_Pop_back_n@?$vector@UD3DXVECTOR3@@V?$allocator@UD3DXVECTOR3@@@std@@@std@@QAEXI@Z 0040bdf0 f i ObjMeshDX.obj
 0001:0000ae30       ?_Pop_back_n@?$vector@UVertexFace@?3??ComputeVertexNormals@ObjMeshDX@@AAEXXZ@V?$allocator@UVertexFace@?3??ComputeVertexNormals@ObjMeshDX@@AAEXXZ@@std@@@std@@QAEXI@Z 0040be30 f i ObjMeshDX.obj
 0001:0000ae70       ?_Reallocate@?$vector@PAUCacheEntry@@V?$allocator@PAUCacheEntry@@@std@@@std@@IAEXI@Z 0040be70 f i ObjMeshDX.obj
 0001:0000ae70       ?_Reallocate@?$vector@HV?$allocator@H@std@@@std@@IAEXI@Z 0040be70 f i ObjMeshDX.obj
 0001:0000ae70       ?_Reallocate@?$vector@PAUMaterial@@V?$allocator@PAUMaterial@@@std@@@std@@IAEXI@Z 0040be70 f i ObjMeshDX.obj
 0001:0000ae70       ?_Reallocate@?$vector@PAVObjMeshDX@@V?$allocator@PAVObjMeshDX@@@std@@@std@@IAEXI@Z 0040be70 f i DeferredRenderer.obj
 0001:0000ae70       ?_Reallocate@?$vector@KV?$allocator@K@std@@@std@@IAEXI@Z 0040be70 f i ObjMeshDX.obj
 0001:0000afb0       ?_Reallocate@?$vector@UD3DXVECTOR2@@V?$allocator@UD3DXVECTOR2@@@std@@@std@@IAEXI@Z 0040bfb0 f i ObjMeshDX.obj
 0001:0000b0f0       ?_Reallocate@?$vector@UD3DXVECTOR3@@V?$allocator@UD3DXVECTOR3@@@std@@@std@@IAEXI@Z 0040c0f0 f i ObjMeshDX.obj
 0001:0000b230       ?_Reallocate@?$vector@UMeshFace@@V?$allocator@UMeshFace@@@std@@@std@@IAEXI@Z 0040c230 f i ObjMeshDX.obj
 0001:0000b370       ?_Reallocate@?$vector@UMeshVertex@@V?$allocator@UMeshVertex@@@std@@@std@@IAEXI@Z 0040c370 f i ObjMeshDX.obj
 0001:0000b4b0       ?_Reallocate@?$vector@UVertexFace@?3??ComputeVertexNormals@ObjMeshDX@@AAEXXZ@V?$allocator@UVertexFace@?3??ComputeVertexNormals@ObjMeshDX@@AAEXXZ@@std@@@std@@IAEXI@Z 0040c4b0 f i ObjMeshDX.obj
 0001:0000b5f0       ?_Reserve@?$vector@UD3DXVECTOR2@@V?$allocator@UD3DXVECTOR2@@@std@@@std@@IAEXI@Z 0040c5f0 f i ObjMeshDX.obj
 0001:0000b650       ?_Reserve@?$vector@UD3DXVECTOR3@@V?$allocator@UD3DXVECTOR3@@@std@@@std@@IAEXI@Z 0040c650 f i ObjMeshDX.obj
 0001:0000b6b0       ?_Reserve@?$vector@UMeshFace@@V?$allocator@UMeshFace@@@std@@@std@@IAEXI@Z 0040c6b0 f i ObjMeshDX.obj
 0001:0000b710       ?_Reserve@?$vector@UMeshVertex@@V?$allocator@UMeshVertex@@@std@@@std@@IAEXI@Z 0040c710 f i ObjMeshDX.obj
 0001:0000b770       ?_Reserve@?$vector@UVertexFace@?3??ComputeVertexNormals@ObjMeshDX@@AAEXXZ@V?$allocator@UVertexFace@?3??ComputeVertexNormals@ObjMeshDX@@AAEXXZ@@std@@@std@@IAEXI@Z 0040c770 f i ObjMeshDX.obj
 0001:0000b7d0       ?_Reset_back@?$basic_filebuf@_WU?$char_traits@_W@std@@@std@@AAEXXZ 0040c7d0 f i ObjMeshDX.obj
 0001:0000b810       ?_Set_back@?$basic_filebuf@_WU?$char_traits@_W@std@@@std@@AAEXXZ 0040c810 f i ObjMeshDX.obj
 0001:0000b870       ?_Tidy@?$vector@PAVObjMeshDX@@V?$allocator@PAVObjMeshDX@@@std@@@std@@IAEXXZ 0040c870 f i DeferredRenderer.obj
 0001:0000b870       ?_Tidy@?$vector@PAUCacheEntry@@V?$allocator@PAUCacheEntry@@@std@@@std@@IAEXXZ 0040c870 f i ObjMeshDX.obj
 0001:0000b870       ?_Tidy@?$vector@KV?$allocator@K@std@@@std@@IAEXXZ 0040c870 f i ObjMeshDX.obj
 0001:0000b870       ?_Tidy@?$vector@PAUMaterial@@V?$allocator@PAUMaterial@@@std@@@std@@IAEXXZ 0040c870 f i ObjMeshDX.obj
 0001:0000b870       ?_Tidy@?$vector@HV?$allocator@H@std@@@std@@IAEXXZ 0040c870 f i ObjMeshDX.obj
 0001:0000b8f0       ?_Tidy@?$vector@UD3DXVECTOR2@@V?$allocator@UD3DXVECTOR2@@@std@@@std@@IAEXXZ 0040c8f0 f i ObjMeshDX.obj
 0001:0000b970       ?_Tidy@?$vector@UD3DXVECTOR3@@V?$allocator@UD3DXVECTOR3@@@std@@@std@@IAEXXZ 0040c970 f i ObjMeshDX.obj
 0001:0000b9f0       ?_Tidy@?$vector@UMeshFace@@V?$allocator@UMeshFace@@@std@@@std@@IAEXXZ 0040c9f0 f i ObjMeshDX.obj
 0001:0000ba70       ?_Tidy@?$vector@UMeshVertex@@V?$allocator@UMeshVertex@@@std@@@std@@IAEXXZ 0040ca70 f i ObjMeshDX.obj
 0001:0000baf0       ?_Tidy@?$vector@UVertexFace@?3??ComputeVertexNormals@ObjMeshDX@@AAEXXZ@V?$allocator@UVertexFace@?3??ComputeVertexNormals@ObjMeshDX@@AAEXXZ@@std@@@std@@IAEXXZ 0040caf0 f i ObjMeshDX.obj
 0001:0000bb70       ?_Unlock@?$basic_filebuf@_WU?$char_traits@_W@std@@@std@@UAEXXZ 0040cb70 f i ObjMeshDX.obj
 0001:0000bba0       ?_Unused_capacity@?$vector@PAUCacheEntry@@V?$allocator@PAUCacheEntry@@@std@@@std@@QBEIXZ 0040cba0 f i ObjMeshDX.obj
 0001:0000bba0       ?_Unused_capacity@?$vector@PAVObjMeshDX@@V?$allocator@PAVObjMeshDX@@@std@@@std@@QBEIXZ 0040cba0 f i DeferredRenderer.obj
 0001:0000bba0       ?_Unused_capacity@?$vector@HV?$allocator@H@std@@@std@@QBEIXZ 0040cba0 f i ObjMeshDX.obj
 0001:0000bba0       ?_Unused_capacity@?$vector@KV?$allocator@K@std@@@std@@QBEIXZ 0040cba0 f i ObjMeshDX.obj
 0001:0000bba0       ?_Unused_capacity@?$vector@PAUMaterial@@V?$allocator@PAUMaterial@@@std@@@std@@QBEIXZ 0040cba0 f i ObjMeshDX.obj
 0001:0000bbc0       ?_Unused_capacity@?$vector@UD3DXVECTOR2@@V?$allocator@UD3DXVECTOR2@@@std@@@std@@QBEIXZ 0040cbc0 f i ObjMeshDX.obj
 0001:0000bbe0       ?_Unused_capacity@?$vector@UD3DXVECTOR3@@V?$allocator@UD3DXVECTOR3@@@std@@@std@@QBEIXZ 0040cbe0 f i ObjMeshDX.obj
 0001:0000bc00       ?_Unused_capacity@?$vector@UMeshFace@@V?$allocator@UMeshFace@@@std@@@std@@QBEIXZ 0040cc00 f i ObjMeshDX.obj
 0001:0000bc00       ?_Unused_capacity@?$vector@UVertexFace@?3??ComputeVertexNormals@ObjMeshDX@@AAEXXZ@V?$allocator@UVertexFace@?3??ComputeVertexNormals@ObjMeshDX@@AAEXXZ@@std@@@std@@QBEIXZ 0040cc00 f i ObjMeshDX.obj
 0001:0000bc20       ?_Unused_capacity@?$vector@UMeshVertex@@V?$allocator@UMeshVertex@@@std@@@std@@QBEIXZ 0040cc20 f i ObjMeshDX.obj
 0001:0000bc40       ?_Xlen@?$vector@UD3DXVECTOR3@@V?$allocator@UD3DXVECTOR3@@@std@@@std@@IBEXXZ 0040cc40 f i ObjMeshDX.obj
 0001:0000bc40       ?_Xlen@?$vector@PAVObjMeshDX@@V?$allocator@PAVObjMeshDX@@@std@@@std@@IBEXXZ 0040cc40 f i DeferredRenderer.obj
 0001:0000bc40       ?_Xlen@?$vector@UMeshFace@@V?$allocator@UMeshFace@@@std@@@std@@IBEXXZ 0040cc40 f i ObjMeshDX.obj
 0001:0000bc40       ?_Xlen@?$vector@KV?$allocator@K@std@@@std@@IBEXXZ 0040cc40 f i ObjMeshDX.obj
 0001:0000bc40       ?_Xlen@?$vector@PAUMaterial@@V?$allocator@PAUMaterial@@@std@@@std@@IBEXXZ 0040cc40 f i ObjMeshDX.obj
 0001:0000bc40       ?_Xlen@?$vector@PAUCacheEntry@@V?$allocator@PAUCacheEntry@@@std@@@std@@IBEXXZ 0040cc40 f i ObjMeshDX.obj
 0001:0000bc40       ?_Xlen@?$vector@UVertexFace@?3??ComputeVertexNormals@ObjMeshDX@@AAEXXZ@V?$allocator@UVertexFace@?3??ComputeVertexNormals@ObjMeshDX@@AAEXXZ@@std@@@std@@IBEXXZ 0040cc40 f i ObjMeshDX.obj
 0001:0000bc40       ?_Xlen@?$vector@HV?$allocator@H@std@@@std@@IBEXXZ 0040cc40 f i ObjMeshDX.obj
 0001:0000bc40       ?_Xlen@?$vector@UD3DXVECTOR2@@V?$allocator@UD3DXVECTOR2@@@std@@@std@@IBEXXZ 0040cc40 f i ObjMeshDX.obj
 0001:0000bc40       ?_Xlen@?$vector@UMeshVertex@@V?$allocator@UMeshVertex@@@std@@@std@@IBEXXZ 0040cc40 f i ObjMeshDX.obj
 0001:0000bc60       ?allocate@?$_Wrap_alloc@V?$allocator@H@std@@@std@@QAEPAHI@Z 0040cc60 f i ObjMeshDX.obj
 0001:0000bc60       ?allocate@?$_Wrap_alloc@V?$allocator@PAUMaterial@@@std@@@std@@QAEPAPAUMaterial@@I@Z 0040cc60 f i ObjMeshDX.obj
 0001:0000bc60       ?allocate@?$_Wrap_alloc@V?$allocator@PAUCacheEntry@@@std@@@std@@QAEPAPAUCacheEntry@@I@Z 0040cc60 f i ObjMeshDX.obj
 0001:0000bc60       ?allocate@?$_Wrap_alloc@V?$allocator@K@std@@@std@@QAEPAKI@Z 0040cc60 f i ObjMeshDX.obj
 0001:0000bc60       ?allocate@?$_Wrap_alloc@V?$allocator@PAVObjMeshDX@@@std@@@std@@QAEPAPAVObjMeshDX@@I@Z 0040cc60 f i DeferredRenderer.obj
 0001:0000bc80       ?allocate@?$_Wrap_alloc@V?$allocator@UD3DXVECTOR2@@@std@@@std@@QAEPAUD3DXVECTOR2@@I@Z 0040cc80 f i ObjMeshDX.obj
 0001:0000bca0       ?allocate@?$_Wrap_alloc@V?$allocator@UD3DXVECTOR3@@@std@@@std@@QAEPAUD3DXVECTOR3@@I@Z 0040cca0 f i ObjMeshDX.obj
 0001:0000bca0       ?allocate@?$_Wrap_alloc@V?$allocator@U?$_List_node@PAVIVisualController@@PAX@std@@@std@@@std@@QAEPAU?$_List_node@PAVIVisualController@@PAX@2@I@Z 0040cca0 f i DeferredShadingMSAA.obj
 0001:0000bcc0       ?allocate@?$_Wrap_alloc@V?$allocator@UVertexFace@?3??ComputeVertexNormals@ObjMeshDX@@AAEXXZ@@std@@@std@@QAEPAUVertexFace@?3??ComputeVertexNormals@ObjMeshDX@@AAEXXZ@I@Z 0040ccc0 f i ObjMeshDX.obj
 0001:0000bcc0       ?allocate@?$_Wrap_alloc@V?$allocator@U?$_List_node@NPAX@std@@@std@@@std@@QAEPAU?$_List_node@NPAX@2@I@Z 0040ccc0 f i DeferredShadingMSAA.obj
 0001:0000bcc0       ?allocate@?$_Wrap_alloc@V?$allocator@UMeshFace@@@std@@@std@@QAEPAUMeshFace@@I@Z 0040ccc0 f i ObjMeshDX.obj
 0001:0000bce0       ?allocate@?$_Wrap_alloc@V?$allocator@UMeshVertex@@@std@@@std@@QAEPAUMeshVertex@@I@Z 0040cce0 f i ObjMeshDX.obj
 0001:0000bd00       ?allocate@?$allocator@K@std@@QAEPAKI@Z 0040cd00 f i ObjMeshDX.obj
 0001:0000bd00       ?allocate@?$allocator@H@std@@QAEPAHI@Z 0040cd00 f i ObjMeshDX.obj
 0001:0000bd00       ?allocate@?$allocator@PAUMaterial@@@std@@QAEPAPAUMaterial@@I@Z 0040cd00 f i ObjMeshDX.obj
 0001:0000bd00       ?allocate@?$allocator@PAVObjMeshDX@@@std@@QAEPAPAVObjMeshDX@@I@Z 0040cd00 f i DeferredRenderer.obj
 0001:0000bd00       ?allocate@?$allocator@PAUCacheEntry@@@std@@QAEPAPAUCacheEntry@@I@Z 0040cd00 f i ObjMeshDX.obj
 0001:0000bd20       ?allocate@?$allocator@UD3DXVECTOR2@@@std@@QAEPAUD3DXVECTOR2@@I@Z 0040cd20 f i ObjMeshDX.obj
 0001:0000bd40       ?allocate@?$allocator@UD3DXVECTOR3@@@std@@QAEPAUD3DXVECTOR3@@I@Z 0040cd40 f i ObjMeshDX.obj
 0001:0000bd40       ?allocate@?$allocator@U?$_List_node@PAVIVisualController@@PAX@std@@@std@@QAEPAU?$_List_node@PAVIVisualController@@PAX@2@I@Z 0040cd40 f i DeferredShadingMSAA.obj
 0001:0000bd60       ?allocate@?$allocator@UMeshFace@@@std@@QAEPAUMeshFace@@I@Z 0040cd60 f i ObjMeshDX.obj
 0001:0000bd60       ?allocate@?$allocator@U?$_List_node@NPAX@std@@@std@@QAEPAU?$_List_node@NPAX@2@I@Z 0040cd60 f i DeferredShadingMSAA.obj
 0001:0000bd60       ?allocate@?$allocator@UVertexFace@?3??ComputeVertexNormals@ObjMeshDX@@AAEXXZ@@std@@QAEPAUVertexFace@?3??ComputeVertexNormals@ObjMeshDX@@AAEXXZ@I@Z 0040cd60 f i ObjMeshDX.obj
 0001:0000bd80       ?allocate@?$allocator@UMeshVertex@@@std@@QAEPAUMeshVertex@@I@Z 0040cd80 f i ObjMeshDX.obj
 0001:0000bda0       ?append@?$basic_string@DU?$char_traits@D@std@@V?$allocator@D@2@@std@@QAEAAV12@ID@Z 0040cda0 f i ObjMeshDX.obj
 0001:0000be20       ?assign@?$basic_string@DU?$char_traits@D@std@@V?$allocator@D@2@@std@@QAEAAV12@ID@Z 0040ce20 f i ObjMeshDX.obj
 0001:0000be80       ?assign@?$char_traits@D@std@@SAPADPADID@Z 0040ce80 f i ObjMeshDX.obj
 0001:0000bea0       ?begin@?$basic_string@DU?$char_traits@D@std@@V?$allocator@D@2@@std@@QAE?AV?$_String_iterator@V?$_String_val@U?$_Simple_types@D@std@@@std@@@2@XZ 0040cea0 f i ObjMeshDX.obj
 0001:0000bed0       ?begin@?$vector@HV?$allocator@H@std@@@std@@QBE?AV?$_Vector_const_iterator@V?$_Vector_val@U?$_Simple_types@H@std@@@std@@@2@XZ 0040ced0 f i ObjMeshDX.obj
 0001:0000bf00       ?capacity@?$vector@PAUCacheEntry@@V?$allocator@PAUCacheEntry@@@std@@@std@@QBEIXZ 0040cf00 f i ObjMeshDX.obj
 0001:0000bf00       ?capacity@?$vector@PAUMaterial@@V?$allocator@PAUMaterial@@@std@@@std@@QBEIXZ 0040cf00 f i ObjMeshDX.obj
 0001:0000bf00       ?capacity@?$vector@HV?$allocator@H@std@@@std@@QBEIXZ 0040cf00 f i ObjMeshDX.obj
 0001:0000bf00       ?capacity@?$vector@KV?$allocator@K@std@@@std@@QBEIXZ 0040cf00 f i ObjMeshDX.obj
 0001:0000bf00       ?capacity@?$vector@PAVObjMeshDX@@V?$allocator@PAVObjMeshDX@@@std@@@std@@QBEIXZ 0040cf00 f i DeferredRenderer.obj
 0001:0000bf20       ?capacity@?$vector@UD3DXVECTOR2@@V?$allocator@UD3DXVECTOR2@@@std@@@std@@QBEIXZ 0040cf20 f i ObjMeshDX.obj
 0001:0000bf40       ?capacity@?$vector@UD3DXVECTOR3@@V?$allocator@UD3DXVECTOR3@@@std@@@std@@QBEIXZ 0040cf40 f i ObjMeshDX.obj
 0001:0000bf60       ?capacity@?$vector@UVertexFace@?3??ComputeVertexNormals@ObjMeshDX@@AAEXXZ@V?$allocator@UVertexFace@?3??ComputeVertexNormals@ObjMeshDX@@AAEXXZ@@std@@@std@@QBEIXZ 0040cf60 f i ObjMeshDX.obj
 0001:0000bf60       ?capacity@?$vector@UMeshFace@@V?$allocator@UMeshFace@@@std@@@std@@QBEIXZ 0040cf60 f i ObjMeshDX.obj
 0001:0000bf80       ?capacity@?$vector@UMeshVertex@@V?$allocator@UMeshVertex@@@std@@@std@@QBEIXZ 0040cf80 f i ObjMeshDX.obj
 0001:0000bfa0       ?clear@?$vector@KV?$allocator@K@std@@@std@@QAEXXZ 0040cfa0 f i ObjMeshDX.obj
 0001:0000bfa0       ?clear@?$vector@PAUMaterial@@V?$allocator@PAUMaterial@@@std@@@std@@QAEXXZ 0040cfa0 f i ObjMeshDX.obj
 0001:0000bfa0       ?clear@?$vector@PAUCacheEntry@@V?$allocator@PAUCacheEntry@@@std@@@std@@QAEXXZ 0040cfa0 f i ObjMeshDX.obj
 0001:0000bfe0       ?clear@?$vector@UMeshVertex@@V?$allocator@UMeshVertex@@@std@@@std@@QAEXXZ 0040cfe0 f i ObjMeshDX.obj
 0001:0000c020       ?close@?$basic_filebuf@_WU?$char_traits@_W@std@@@std@@QAEPAV12@XZ 0040d020 f i ObjMeshDX.obj
 0001:0000c090       ?close@?$basic_ifstream@_WU?$char_traits@_W@std@@@std@@QAEXXZ 0040d090 f i ObjMeshDX.obj
 0001:0000c0d0       ?construct@?$_Wrap_alloc@V?$allocator@UD3DXVECTOR3@@@std@@@std@@QAEXPAUD3DXVECTOR3@@@Z 0040d0d0 f i ObjMeshDX.obj
 0001:0000c0f0       ?construct@?$_Wrap_alloc@V?$allocator@UVertexFace@?3??ComputeVertexNormals@ObjMeshDX@@AAEXXZ@@std@@@std@@QAEXPAUVertexFace@?3??ComputeVertexNormals@ObjMeshDX@@AAEXXZ@@Z 0040d0f0 f i ObjMeshDX.obj
 0001:0000c110       ?construct@?$allocator@H@std@@QAEXPAHABH@Z 0040d110 f i ObjMeshDX.obj
 0001:0000c110       ?construct@?$allocator@PAUMaterial@@@std@@QAEXPAPAUMaterial@@ABQAU3@@Z 0040d110 f i ObjMeshDX.obj
 0001:0000c110       ?construct@?$allocator@PAVObjMeshDX@@@std@@QAEXPAPAVObjMeshDX@@ABQAV3@@Z 0040d110 f i DeferredRenderer.obj
 0001:0000c110       ?construct@?$allocator@K@std@@QAEXPAKABK@Z 0040d110 f i ObjMeshDX.obj
 0001:0000c150       ?construct@?$allocator@UD3DXVECTOR3@@@std@@QAEXPAUD3DXVECTOR3@@@Z 0040d150 f i ObjMeshDX.obj
 0001:0000c1d0       ?construct@?$allocator@UMeshFace@@@std@@QAEXPAUMeshFace@@ABU3@@Z 0040d1d0 f i ObjMeshDX.obj
 0001:0000c230       ?construct@?$allocator@UMeshVertex@@@std@@QAEXPAUMeshVertex@@ABU3@@Z 0040d230 f i ObjMeshDX.obj
 0001:0000c280       ?construct@?$allocator@UVertexFace@?3??ComputeVertexNormals@ObjMeshDX@@AAEXXZ@@std@@QAEXPAUVertexFace@?3??ComputeVertexNormals@ObjMeshDX@@AAEXXZ@@Z 0040d280 f i ObjMeshDX.obj
 0001:0000c300       ?deallocate@?$_Wrap_alloc@V?$allocator@K@std@@@std@@QAEXPAKI@Z 0040d300 f i ObjMeshDX.obj
 0001:0000c300       ?deallocate@?$_Wrap_alloc@V?$allocator@U?$_List_node@PAVIVisualController@@PAX@std@@@std@@@std@@QAEXPAU?$_List_node@PAVIVisualController@@PAX@2@I@Z 0040d300 f i DeferredShadingMSAA.obj
 0001:0000c300       ?deallocate@?$_Wrap_alloc@V?$allocator@D@std@@@std@@QAEXPADI@Z 0040d300 f i DeferredRenderer.obj
 0001:0000c300       ?deallocate@?$_Wrap_alloc@V?$allocator@U?$_List_node@NPAX@std@@@std@@@std@@QAEXPAU?$_List_node@NPAX@2@I@Z 0040d300 f i DeferredShadingMSAA.obj
 0001:0000c300       ?deallocate@?$_Wrap_alloc@V?$allocator@UMeshFace@@@std@@@std@@QAEXPAUMeshFace@@I@Z 0040d300 f i ObjMeshDX.obj
 0001:0000c300       ?deallocate@?$_Wrap_alloc@V?$allocator@PAUMaterial@@@std@@@std@@QAEXPAPAUMaterial@@I@Z 0040d300 f i ObjMeshDX.obj
 0001:0000c300       ?deallocate@?$_Wrap_alloc@V?$allocator@PAUCacheEntry@@@std@@@std@@QAEXPAPAUCacheEntry@@I@Z 0040d300 f i ObjMeshDX.obj
 0001:0000c300       ?deallocate@?$_Wrap_alloc@V?$allocator@PAVObjMeshDX@@@std@@@std@@QAEXPAPAVObjMeshDX@@I@Z 0040d300 f i DeferredRenderer.obj
 0001:0000c300       ?deallocate@?$_Wrap_alloc@V?$allocator@UD3DXVECTOR2@@@std@@@std@@QAEXPAUD3DXVECTOR2@@I@Z 0040d300 f i ObjMeshDX.obj
 0001:0000c300       ?deallocate@?$_Wrap_alloc@V?$allocator@UD3DXVECTOR3@@@std@@@std@@QAEXPAUD3DXVECTOR3@@I@Z 0040d300 f i ObjMeshDX.obj
 0001:0000c300       ?deallocate@?$_Wrap_alloc@V?$allocator@UMeshVertex@@@std@@@std@@QAEXPAUMeshVertex@@I@Z 0040d300 f i ObjMeshDX.obj
 0001:0000c300       ?deallocate@?$_Wrap_alloc@V?$allocator@H@std@@@std@@QAEXPAHI@Z 0040d300 f i ObjMeshDX.obj
 0001:0000c300       ?deallocate@?$_Wrap_alloc@V?$allocator@UVertexFace@?3??ComputeVertexNormals@ObjMeshDX@@AAEXXZ@@std@@@std@@QAEXPAUVertexFace@?3??ComputeVertexNormals@ObjMeshDX@@AAEXXZ@I@Z 0040d300 f i ObjMeshDX.obj
 0001:0000c300       ?deallocate@?$_Wrap_alloc@V?$allocator@_W@std@@@std@@QAEXPA_WI@Z 0040d300 f i DeferredShadingMSAA.obj
 0001:0000c320       ?end@?$vector@HV?$allocator@H@std@@@std@@QBE?AV?$_Vector_const_iterator@V?$_Vector_val@U?$_Simple_types@H@std@@@std@@@2@XZ 0040d320 f i ObjMeshDX.obj
 0001:0000c350       ?eof@?$char_traits@_W@std@@SAGXZ 0040d350 f i ObjMeshDX.obj
 0001:0000c360       ?eq_int_type@?$char_traits@_W@std@@SA_NABG0@Z 0040d360 f i ObjMeshDX.obj
 0001:0000c390       ?imbue@?$basic_filebuf@_WU?$char_traits@_W@std@@@std@@MAEXABVlocale@2@@Z 0040d390 f i ObjMeshDX.obj
 0001:0000c3c0       ?max_size@?$_Wrap_alloc@V?$allocator@H@std@@@std@@QBEIXZ 0040d3c0 f i ObjMeshDX.obj
 0001:0000c3c0       ?max_size@?$_Wrap_alloc@V?$allocator@PAVObjMeshDX@@@std@@@std@@QBEIXZ 0040d3c0 f i DeferredRenderer.obj
 0001:0000c3c0       ?max_size@?$_Wrap_alloc@V?$allocator@PAUMaterial@@@std@@@std@@QBEIXZ 0040d3c0 f i ObjMeshDX.obj
 0001:0000c3c0       ?max_size@?$_Wrap_alloc@V?$allocator@PAUCacheEntry@@@std@@@std@@QBEIXZ 0040d3c0 f i ObjMeshDX.obj
 0001:0000c3c0       ?max_size@?$_Wrap_alloc@V?$allocator@K@std@@@std@@QBEIXZ 0040d3c0 f i ObjMeshDX.obj
 0001:0000c3e0       ?max_size@?$_Wrap_alloc@V?$allocator@UD3DXVECTOR2@@@std@@@std@@QBEIXZ 0040d3e0 f i ObjMeshDX.obj
 0001:0000c400       ?max_size@?$_Wrap_alloc@V?$allocator@UMeshVertex@@@std@@@std@@QBEIXZ 0040d400 f i ObjMeshDX.obj
 0001:0000c420       ?max_size@?$allocator@PAUMaterial@@@std@@QBEIXZ 0040d420 f i ObjMeshDX.obj
 0001:0000c420       ?max_size@?$allocator@PAVObjMeshDX@@@std@@QBEIXZ 0040d420 f i DeferredRenderer.obj
 0001:0000c420       ?max_size@?$allocator@PAUCacheEntry@@@std@@QBEIXZ 0040d420 f i ObjMeshDX.obj
 0001:0000c420       ?max_size@?$allocator@K@std@@QBEIXZ 0040d420 f i ObjMeshDX.obj
 0001:0000c420       ?max_size@?$allocator@H@std@@QBEIXZ 0040d420 f i ObjMeshDX.obj
 0001:0000c430       ?max_size@?$allocator@UD3DXVECTOR2@@@std@@QBEIXZ 0040d430 f i ObjMeshDX.obj
 0001:0000c440       ?max_size@?$allocator@U?$_List_node@PAVIVisualController@@PAX@std@@@std@@QBEIXZ 0040d440 f i nvidiautilsDEBUG:DeviceManager.obj
 0001:0000c440       ?max_size@?$allocator@UD3DXVECTOR3@@@std@@QBEIXZ 0040d440 f i ObjMeshDX.obj
 0001:0000c450       ?max_size@?$allocator@UMeshVertex@@@std@@QBEIXZ 0040d450 f i ObjMeshDX.obj
 0001:0000c460       ?max_size@?$allocator_traits@V?$allocator@K@std@@@std@@SAIABV?$allocator@K@2@@Z 0040d460 f i ObjMeshDX.obj
 0001:0000c460       ?max_size@?$allocator_traits@V?$allocator@H@std@@@std@@SAIABV?$allocator@H@2@@Z 0040d460 f i ObjMeshDX.obj
 0001:0000c460       ?max_size@?$allocator_traits@V?$allocator@PAVObjMeshDX@@@std@@@std@@SAIABV?$allocator@PAVObjMeshDX@@@2@@Z 0040d460 f i DeferredRenderer.obj
 0001:0000c460       ?max_size@?$allocator_traits@V?$allocator@PAUCacheEntry@@@std@@@std@@SAIABV?$allocator@PAUCacheEntry@@@2@@Z 0040d460 f i ObjMeshDX.obj
 0001:0000c460       ?max_size@?$allocator_traits@V?$allocator@PAUMaterial@@@std@@@std@@SAIABV?$allocator@PAUMaterial@@@2@@Z 0040d460 f i ObjMeshDX.obj
 0001:0000c470       ?max_size@?$allocator_traits@V?$allocator@UD3DXVECTOR2@@@std@@@std@@SAIABV?$allocator@UD3DXVECTOR2@@@2@@Z 0040d470 f i ObjMeshDX.obj
 0001:0000c480       ?max_size@?$allocator_traits@V?$allocator@U?$_List_node@PAVIVisualController@@PAX@std@@@std@@@std@@SAIABV?$allocator@U?$_List_node@PAVIVisualController@@PAX@std@@@2@@Z 0040d480 f i nvidiautilsDEBUG:DeviceManager.obj
 0001:0000c480       ?max_size@?$allocator_traits@V?$allocator@UD3DXVECTOR3@@@std@@@std@@SAIABV?$allocator@UD3DXVECTOR3@@@2@@Z 0040d480 f i ObjMeshDX.obj
 0001:0000c490       ?max_size@?$allocator_traits@V?$allocator@UMeshVertex@@@std@@@std@@SAIABV?$allocator@UMeshVertex@@@2@@Z 0040d490 f i ObjMeshDX.obj
 0001:0000c4a0       ?max_size@?$vector@HV?$allocator@H@std@@@std@@QBEIXZ 0040d4a0 f i ObjMeshDX.obj
 0001:0000c4a0       ?max_size@?$vector@PAUMaterial@@V?$allocator@PAUMaterial@@@std@@@std@@QBEIXZ 0040d4a0 f i ObjMeshDX.obj
 0001:0000c4a0       ?max_size@?$vector@PAUCacheEntry@@V?$allocator@PAUCacheEntry@@@std@@@std@@QBEIXZ 0040d4a0 f i ObjMeshDX.obj
 0001:0000c4a0       ?max_size@?$vector@KV?$allocator@K@std@@@std@@QBEIXZ 0040d4a0 f i ObjMeshDX.obj
 0001:0000c4a0       ?max_size@?$vector@PAVObjMeshDX@@V?$allocator@PAVObjMeshDX@@@std@@@std@@QBEIXZ 0040d4a0 f i DeferredRenderer.obj
 0001:0000c4c0       ?max_size@?$vector@UD3DXVECTOR2@@V?$allocator@UD3DXVECTOR2@@@std@@@std@@QBEIXZ 0040d4c0 f i ObjMeshDX.obj
 0001:0000c4e0       ?max_size@?$vector@UMeshVertex@@V?$allocator@UMeshVertex@@@std@@@std@@QBEIXZ 0040d4e0 f i ObjMeshDX.obj
 0001:0000c500       ?not_eof@?$char_traits@_W@std@@SAGABG@Z 0040d500 f i ObjMeshDX.obj
 0001:0000c550       ?open@?$basic_filebuf@_WU?$char_traits@_W@std@@@std@@QAEPAV12@PB_WHH@Z 0040d550 f i ObjMeshDX.obj
 0001:0000c610       ?overflow@?$basic_filebuf@_WU?$char_traits@_W@std@@@std@@MAEGG@Z 0040d610 f i ObjMeshDX.obj
 0001:0000c940       ?pbackfail@?$basic_filebuf@_WU?$char_traits@_W@std@@@std@@MAEGG@Z 0040d940 f i ObjMeshDX.obj
 0001:0000caa0       ?push_back@?$vector@KV?$allocator@K@std@@@std@@QAEX$$QAK@Z 0040daa0 f i ObjMeshDX.obj
 0001:0000caa0       ?push_back@?$vector@PAUCacheEntry@@V?$allocator@PAUCacheEntry@@@std@@@std@@QAEX$$QAPAUCacheEntry@@@Z 0040daa0 f i ObjMeshDX.obj
 0001:0000cbc0       ?push_back@?$vector@PAUMaterial@@V?$allocator@PAUMaterial@@@std@@@std@@QAEXABQAUMaterial@@@Z 0040dbc0 f i ObjMeshDX.obj
 0001:0000cbc0       ?push_back@?$vector@PAVObjMeshDX@@V?$allocator@PAVObjMeshDX@@@std@@@std@@QAEXABQAVObjMeshDX@@@Z 0040dbc0 f i DeferredRenderer.obj
 0001:0000cbc0       ?push_back@?$vector@HV?$allocator@H@std@@@std@@QAEXABH@Z 0040dbc0 f i ObjMeshDX.obj
 0001:0000cbc0       ?push_back@?$vector@KV?$allocator@K@std@@@std@@QAEXABK@Z 0040dbc0 f i ObjMeshDX.obj
 0001:0000ccd0       ?push_back@?$vector@UD3DXVECTOR2@@V?$allocator@UD3DXVECTOR2@@@std@@@std@@QAEX$$QAUD3DXVECTOR2@@@Z 0040dcd0 f i ObjMeshDX.obj
 0001:0000cdf0       ?push_back@?$vector@UD3DXVECTOR3@@V?$allocator@UD3DXVECTOR3@@@std@@@std@@QAEX$$QAUD3DXVECTOR3@@@Z 0040ddf0 f i ObjMeshDX.obj
 0001:0000cf10       ?push_back@?$vector@UMeshFace@@V?$allocator@UMeshFace@@@std@@@std@@QAEXABUMeshFace@@@Z 0040df10 f i ObjMeshDX.obj
 0001:0000d020       ?push_back@?$vector@UMeshVertex@@V?$allocator@UMeshVertex@@@std@@@std@@QAEXABUMeshVertex@@@Z 0040e020 f i ObjMeshDX.obj
 0001:0000d130       ?resize@?$vector@UD3DXVECTOR3@@V?$allocator@UD3DXVECTOR3@@@std@@@std@@QAEXI@Z 0040e130 f i ObjMeshDX.obj
 0001:0000d240       ?resize@?$vector@UVertexFace@?3??ComputeVertexNormals@ObjMeshDX@@AAEXXZ@V?$allocator@UVertexFace@?3??ComputeVertexNormals@ObjMeshDX@@AAEXXZ@@std@@@std@@QAEXI@Z 0040e240 f i ObjMeshDX.obj
 0001:0000d350       ?seekoff@?$basic_filebuf@_WU?$char_traits@_W@std@@@std@@MAE?AV?$fpos@H@2@_JHH@Z 0040e350 f i ObjMeshDX.obj
 0001:0000d430       ?seekpos@?$basic_filebuf@_WU?$char_traits@_W@std@@@std@@MAE?AV?$fpos@H@2@V32@H@Z 0040e430 f i ObjMeshDX.obj
 0001:0000d520       ?seekpos@?$fpos@H@std@@QBE_JXZ 0040e520 f i ObjMeshDX.obj
 0001:0000d540       ?select_on_container_copy_construction@?$_Wrap_alloc@V?$allocator@H@std@@@std@@QBE?AU12@XZ 0040e540 f i ObjMeshDX.obj
 0001:0000d570       ?select_on_container_copy_construction@?$allocator@H@std@@QBE?AV12@XZ 0040e570 f i ObjMeshDX.obj
 0001:0000d590       ?select_on_container_copy_construction@?$allocator_traits@V?$allocator@H@std@@@std@@SA?AV?$allocator@H@2@ABV32@@Z 0040e590 f i ObjMeshDX.obj
 0001:0000d5b0       ?setbuf@?$basic_filebuf@_WU?$char_traits@_W@std@@@std@@MAEPAV?$basic_streambuf@_WU?$char_traits@_W@std@@@2@PA_W_J@Z 0040e5b0 f i ObjMeshDX.obj
 0001:0000d630       ?size@?$vector@HV?$allocator@H@std@@@std@@QBEIXZ 0040e630 f i ObjMeshDX.obj
 0001:0000d630       ?size@?$vector@KV?$allocator@K@std@@@std@@QBEIXZ 0040e630 f i ObjMeshDX.obj
 0001:0000d630       ?size@?$vector@PAVObjMeshDX@@V?$allocator@PAVObjMeshDX@@@std@@@std@@QBEIXZ 0040e630 f i DeferredRenderer.obj
 0001:0000d630       ?size@?$vector@PAUMaterial@@V?$allocator@PAUMaterial@@@std@@@std@@QBEIXZ 0040e630 f i ObjMeshDX.obj
 0001:0000d630       ?size@?$vector@PAUCacheEntry@@V?$allocator@PAUCacheEntry@@@std@@@std@@QBEIXZ 0040e630 f i ObjMeshDX.obj
 0001:0000d650       ?size@?$vector@UD3DXVECTOR2@@V?$allocator@UD3DXVECTOR2@@@std@@@std@@QBEIXZ 0040e650 f i ObjMeshDX.obj
 0001:0000d670       ?size@?$vector@UD3DXVECTOR3@@V?$allocator@UD3DXVECTOR3@@@std@@@std@@QBEIXZ 0040e670 f i ObjMeshDX.obj
 0001:0000d690       ?size@?$vector@UVertexFace@?3??ComputeVertexNormals@ObjMeshDX@@AAEXXZ@V?$allocator@UVertexFace@?3??ComputeVertexNormals@ObjMeshDX@@AAEXXZ@@std@@@std@@QBEIXZ 0040e690 f i ObjMeshDX.obj
 0001:0000d690       ?size@?$vector@UMeshFace@@V?$allocator@UMeshFace@@@std@@@std@@QBEIXZ 0040e690 f i ObjMeshDX.obj
 0001:0000d6b0       ?size@?$vector@UMeshVertex@@V?$allocator@UMeshVertex@@@std@@@std@@QBEIXZ 0040e6b0 f i ObjMeshDX.obj
 0001:0000d6d0       ?size@?$basic_string@_WU?$char_traits@_W@std@@V?$allocator@_W@2@@std@@QBEIXZ 0040e6d0 f i DeferredShadingMSAA.obj
 0001:0000d6d0       ?state@?$fpos@H@std@@QBEHXZ 0040e6d0 f i ObjMeshDX.obj
 0001:0000d6d0       ?size@?$basic_string@DU?$char_traits@D@std@@V?$allocator@D@2@@std@@QBEIXZ 0040e6d0 f i DeferredRenderer.obj
 0001:0000d6f0       ?sync@?$basic_filebuf@_WU?$char_traits@_W@std@@@std@@MAEHXZ 0040e6f0 f i ObjMeshDX.obj
 0001:0000d770       ?to_char_type@?$char_traits@_W@std@@SA_WABG@Z 0040e770 f i ObjMeshDX.obj
 0001:0000d770       ?to_int_type@?$char_traits@_W@std@@SAGAB_W@Z 0040e770 f i ObjMeshDX.obj
 0001:0000d780       ?uflow@?$basic_filebuf@_WU?$char_traits@_W@std@@@std@@MAEGXZ 0040e780 f i ObjMeshDX.obj
 0001:0000da80       ?underflow@?$basic_filebuf@_WU?$char_traits@_W@std@@@std@@MAEGXZ 0040ea80 f i ObjMeshDX.obj
 0001:0000db1a       _D3DX11CompileFromFileW@44 0040eb1a f   d3dx11:d3dx11_43.dll
 0001:0000db20       _D3DX11GetImageInfoFromFileW@16 0040eb20 f   d3dx11:d3dx11_43.dll
 0001:0000db26       _D3DX11CreateShaderResourceViewFromFileW@24 0040eb26 f   d3dx11:d3dx11_43.dll
 0001:0000db2c       _D3DXMatrixTranspose@8     0040eb2c f   d3dx9:d3dx9_43.dll
 0001:0000db32       _D3DXMatrixMultiply@12     0040eb32 f   d3dx9:d3dx9_43.dll
 0001:0000db38       _D3DXMatrixInverse@12      0040eb38 f   d3dx9:d3dx9_43.dll
 0001:0000db3e       _D3DXMatrixScaling@16      0040eb3e f   d3dx9:d3dx9_43.dll
 0001:0000db44       _D3DXVec3Normalize@8       0040eb44 f   d3dx9:d3dx9_43.dll
 0001:0000db50       ??0CD3DArcBall@@QAE@XZ     0040eb50 f   nvidiautilsDEBUG:Camera.obj
 0001:0000dcd0       ?Reset@CD3DArcBall@@QAEXXZ 0040ecd0 f   nvidiautilsDEBUG:Camera.obj
 0001:0000dd60       ?OnBegin@CD3DArcBall@@QAEXHH@Z 0040ed60 f   nvidiautilsDEBUG:Camera.obj
 0001:0000de50       ?OnMove@CD3DArcBall@@QAEXHH@Z 0040ee50 f   nvidiautilsDEBUG:Camera.obj
 0001:0000df10       ?OnEnd@CD3DArcBall@@QAEXXZ 0040ef10 f   nvidiautilsDEBUG:Camera.obj
 0001:0000df30       ?HandleMessages@CD3DArcBall@@QAEJPAUHWND__@@IIJ@Z 0040ef30 f   nvidiautilsDEBUG:Camera.obj
 0001:0000e1d0       ?QuatFromBallPoints@CD3DArcBall@@SG?AUD3DXQUATERNION@@ABUD3DXVECTOR3@@0@Z 0040f1d0 f   nvidiautilsDEBUG:Camera.obj
 0001:0000e260       ?ScreenToVector@CD3DArcBall@@IAE?AUD3DXVECTOR3@@MM@Z 0040f260 f   nvidiautilsDEBUG:Camera.obj
 0001:0000e3f0       ??0CBaseCamera@@QAE@XZ     0040f3f0 f   nvidiautilsDEBUG:Camera.obj
 0001:0000e890       ?HandleMessages@CBaseCamera@@UAEJPAUHWND__@@IIJ@Z 0040f890 f   nvidiautilsDEBUG:Camera.obj
 0001:0000ec80       ?Reset@CBaseCamera@@UAEXXZ 0040fc80 f   nvidiautilsDEBUG:Camera.obj
 0001:0000ecb0       ?SetViewParams@CBaseCamera@@UAEXPAUD3DXVECTOR3@@0@Z 0040fcb0 f   nvidiautilsDEBUG:Camera.obj
 0001:0000ee60       ?SetProjParams@CBaseCamera@@UAEXMMMM@Z 0040fe60 f   nvidiautilsDEBUG:Camera.obj
 0001:0000eef0       ?MapKey@CBaseCamera@@MAE?AW4D3DUtil_CameraKeys@@I@Z 0040fef0 f   nvidiautilsDEBUG:Camera.obj
 0001:0000f070       ?ConstrainToBoundary@CBaseCamera@@IAEXPAUD3DXVECTOR3@@@Z 00410070 f   nvidiautilsDEBUG:Camera.obj
 0001:0000f200       ?UpdateMouseDelta@CBaseCamera@@IAEXXZ 00410200 f   nvidiautilsDEBUG:Camera.obj
 0001:0000f300       ?UpdateVelocity@CBaseCamera@@IAEXM@Z 00410300 f   nvidiautilsDEBUG:Camera.obj
 0001:0000f560       ?GetInput@CBaseCamera@@IAEX_N000@Z 00410560 f   nvidiautilsDEBUG:Camera.obj
 0001:0000f9d0       ??0CFirstPersonCamera@@QAE@XZ 004109d0 f   nvidiautilsDEBUG:Camera.obj
 0001:0000fa20       ?FrameMove@CFirstPersonCamera@@UAEXM@Z 00410a20 f   nvidiautilsDEBUG:Camera.obj
 0001:0000fef0       ?SetRotateButtons@CFirstPersonCamera@@QAEX_N000@Z 00410ef0 f   nvidiautilsDEBUG:Camera.obj
 0001:0000ff70       ??0CModelViewerCamera@@QAE@XZ 00410f70 f   nvidiautilsDEBUG:Camera.obj
 0001:00010140       ?HandleMessages@CModelViewerCamera@@UAEJPAUHWND__@@IIJ@Z 00411140 f   nvidiautilsDEBUG:Camera.obj
 0001:00010480       ?FrameMove@CModelViewerCamera@@UAEXM@Z 00411480 f   nvidiautilsDEBUG:Camera.obj
 0001:00010bc0       ?SetDragRect@CModelViewerCamera@@UAEXAAUtagRECT@@@Z 00411bc0 f   nvidiautilsDEBUG:Camera.obj
 0001:00010c40       ?Reset@CModelViewerCamera@@UAEXXZ 00411c40 f   nvidiautilsDEBUG:Camera.obj
 0001:00010cd0       ?SetViewParams@CModelViewerCamera@@UAEXPAUD3DXVECTOR3@@0@Z 00411cd0 f   nvidiautilsDEBUG:Camera.obj
 0001:00010e00       ?TransformGamepadStick@@YAXAAM@Z 00411e00 f   nvidiautilsDEBUG:Camera.obj
 0001:00010e80       ??0D3DXQUATERNION@@QAE@MMMM@Z 00411e80 f i nvidiautilsDEBUG:Camera.obj
 0001:00010ed0       ??DD3DXQUATERNION@@QBE?AU0@ABU0@@Z 00411ed0 f i nvidiautilsDEBUG:Camera.obj
 0001:00010f20       ??DD3DXVECTOR2@@QBE?AU0@M@Z 00411f20 f i nvidiautilsDEBUG:Camera.obj
 0001:00010f60       ??DD3DXVECTOR3@@QBE?AU0@M@Z 00411f60 f i nvidiautilsDEBUG:Camera.obj
 0001:00010fb0       ??HD3DXVECTOR2@@QBE?AU0@ABU0@@Z 00411fb0 f i nvidiautilsDEBUG:Camera.obj
 0001:00011000       ??KD3DXVECTOR3@@QBE?AU0@M@Z 00412000 f i nvidiautilsDEBUG:Camera.obj
 0001:00011070       ??XD3DXMATRIX@@QAEAAU0@ABU0@@Z 00412070 f i nvidiautilsDEBUG:Camera.obj
 0001:000110a0       ??XD3DXVECTOR3@@QAEAAU0@M@Z 004120a0 f i nvidiautilsDEBUG:Camera.obj
 0001:000110f0       ?D3DXMatrixIdentity@@YAPAUD3DXMATRIX@@PAU1@@Z 004120f0 f i nvidiautilsDEBUG:Camera.obj
 0001:000112f0       ?D3DXQuaternionIdentity@@YAPAUD3DXQUATERNION@@PAU1@@Z 004122f0 f i nvidiautilsDEBUG:Camera.obj
 0001:00011340       ?D3DXVec3Dot@@YAMPBUD3DXVECTOR3@@0@Z 00412340 f i nvidiautilsDEBUG:Camera.obj
 0001:00011390       ?D3DXVec3Length@@YAMPBUD3DXVECTOR3@@@Z 00412390 f i nvidiautilsDEBUG:Camera.obj
 0001:000113e0       ?D3DXVec3LengthSq@@YAMPBUD3DXVECTOR3@@@Z 004123e0 f i nvidiautilsDEBUG:Camera.obj
 0001:00011430       ?D3DXVec3Subtract@@YAPAUD3DXVECTOR3@@PAU1@PBU1@1@Z 00412430 f i nvidiautilsDEBUG:Camera.obj
 0001:00011480       ?GetRotationMatrix@CD3DArcBall@@QAEPBUD3DXMATRIX@@XZ 00412480 f i nvidiautilsDEBUG:Camera.obj
 0001:000114a0       ?IsBeingDragged@CD3DArcBall@@QBE_NXZ 004124a0 f i nvidiautilsDEBUG:Camera.obj
 0001:000114c0       ?IsKeyDown@CBaseCamera@@IBE_NE@Z 004124c0 f i nvidiautilsDEBUG:Camera.obj
 0001:000114f0       ?SetDragRect@CBaseCamera@@UAEXAAUtagRECT@@@Z 004124f0 f i nvidiautilsDEBUG:Camera.obj
 0001:00011520       ?SetOffset@CD3DArcBall@@QAEXHH@Z 00412520 f i nvidiautilsDEBUG:Camera.obj
 0001:00011550       ?SetQuatNow@CD3DArcBall@@QAEXUD3DXQUATERNION@@@Z 00412550 f i nvidiautilsDEBUG:Camera.obj
 0001:00011580       ?SetRadius@CModelViewerCamera@@QAEXMMM@Z 00412580 f i nvidiautilsDEBUG:Camera.obj
 0001:000115e0       ?SetWindow@CD3DArcBall@@QAEXHHM@Z 004125e0 f i nvidiautilsDEBUG:Camera.obj
 0001:00011670       ?SetWindow@CModelViewerCamera@@QAEXHHM@Z 00412670 f i nvidiautilsDEBUG:Camera.obj
 0001:000116c0       ?abs@@YAMM@Z               004126c0 f i nvidiautilsDEBUG:Camera.obj
 0001:000116e0       _atan2f                    004126e0 f i nvidiautilsDEBUG:Camera.obj
 0001:00011710       _fabsf                     00412710 f i nvidiautilsDEBUG:Camera.obj
 0001:00011730       _sqrtf                     00412730 f i nvidiautilsDEBUG:Camera.obj
 0001:00011750       ?CreateRenderTargetAndDepthStencil@DeviceManager@@AAEJXZ 00412750 f   nvidiautilsDEBUG:DeviceManager.obj
 0001:00011840       ?CreateWindowDeviceAndSwapChain@DeviceManager@@UAEJABUDeviceCreationParameters@@PA_W@Z 00412840 f   nvidiautilsDEBUG:DeviceManager.obj
 0001:00011bc0       ?ChangeBackBufferFormat@DeviceManager@@UAEJW4DXGI_FORMAT@@I@Z 00412bc0 f   nvidiautilsDEBUG:DeviceManager.obj
 0001:00011e30       ?ResizeWindow@DeviceManager@@UAEJHH@Z 00412e30 f   nvidiautilsDEBUG:DeviceManager.obj
 0001:00011ec0       ?EnterFullscreenMode@DeviceManager@@UAEJHH@Z 00412ec0 f   nvidiautilsDEBUG:DeviceManager.obj
 0001:00011fc0       ?LeaveFullscreenMode@DeviceManager@@UAEJHH@Z 00412fc0 f   nvidiautilsDEBUG:DeviceManager.obj
 0001:000120f0       ?ToggleFullscreen@DeviceManager@@UAEJXZ 004130f0 f   nvidiautilsDEBUG:DeviceManager.obj
 0001:00012130       ?Shutdown@DeviceManager@@UAEXXZ 00413130 f   nvidiautilsDEBUG:DeviceManager.obj
 0001:00012270       ?MessageLoop@DeviceManager@@UAEXXZ 00413270 f   nvidiautilsDEBUG:DeviceManager.obj
 0001:000124b0       ?MsgProc@DeviceManager@@UAEJPAUHWND__@@IIJ@Z 004134b0 f   nvidiautilsDEBUG:DeviceManager.obj
 0001:00012780       ?Render@DeviceManager@@UAEXXZ 00413780 f   nvidiautilsDEBUG:DeviceManager.obj
 0001:00012940       ?Animate@DeviceManager@@UAEXN@Z 00413940 f   nvidiautilsDEBUG:DeviceManager.obj
 0001:000129e0       ?DeviceCreated@DeviceManager@@UAEXXZ 004139e0 f   nvidiautilsDEBUG:DeviceManager.obj
 0001:00012a60       ?DeviceDestroyed@DeviceManager@@UAEXXZ 00413a60 f   nvidiautilsDEBUG:DeviceManager.obj
 0001:00012ad0       ?BackBufferResized@DeviceManager@@UAEXXZ 00413ad0 f   nvidiautilsDEBUG:DeviceManager.obj
 0001:00012ba0       ?AddControllerToFront@DeviceManager@@QAEXPAVIVisualController@@@Z 00413ba0 f   nvidiautilsDEBUG:DeviceManager.obj
 0001:00012be0       ?AddControllerToBack@DeviceManager@@QAEXPAVIVisualController@@@Z 00413be0 f   nvidiautilsDEBUG:DeviceManager.obj
 0001:00012c20       ?RemoveController@DeviceManager@@QAEXPAVIVisualController@@@Z 00413c20 f   nvidiautilsDEBUG:DeviceManager.obj
 0001:00012c40       ?GetWindowState@DeviceManager@@QAE?AW4WindowState@1@XZ 00413c40 f   nvidiautilsDEBUG:DeviceManager.obj
 0001:00012cb0       ?GetDisplayResolution@DeviceManager@@QAEJAAH0@Z 00413cb0 f   nvidiautilsDEBUG:DeviceManager.obj
 0001:00012d30       ?GetDXGIAdapter@DeviceManager@@QAEPAUIDXGIAdapter@@XZ 00413d30 f   nvidiautilsDEBUG:DeviceManager.obj
 0001:00012da0       ?WindowProc@@YGJPAUHWND__@@IIJ@Z 00413da0 f   nvidiautilsDEBUG:DeviceManager.obj
 0001:00012df0       ??$?8V?$_List_iterator@V?$_List_val@U?$_List_simple_types@PAVIVisualController@@@std@@@std@@@std@@V01@@std@@YA_NABV?$reverse_iterator@V?$_List_iterator@V?$_List_val@U?$_List_simple_types@PAVIVisualController@@@std@@@std@@@std@@@0@0@Z 00413df0 f i nvidiautilsDEBUG:DeviceManager.obj
 0001:00012e10       ??$?9V?$_List_iterator@V?$_List_val@U?$_List_simple_types@PAVIVisualController@@@std@@@std@@@std@@V01@@std@@YA_NABV?$reverse_iterator@V?$_List_iterator@V?$_List_val@U?$_List_simple_types@PAVIVisualController@@@std@@@std@@@std@@@0@0@Z 00413e10 f i nvidiautilsDEBUG:DeviceManager.obj
 0001:00012e50       ??$_Buynode@ABN@?$_List_buy@NV?$allocator@N@std@@@std@@QAEPAU?$_List_node@NPAX@1@PAU21@0ABN@Z 00413e50 f i nvidiautilsDEBUG:DeviceManager.obj
 0001:00012f30       ??$_Buynode@ABQAVIVisualController@@@?$_List_buy@PAVIVisualController@@V?$allocator@PAVIVisualController@@@std@@@std@@QAEPAU?$_List_node@PAVIVisualController@@PAX@1@PAU21@0ABQAVIVisualController@@@Z 00413f30 f i nvidiautilsDEBUG:DeviceManager.obj
 0001:00013010       ??$_Equal@V?$_List_iterator@V?$_List_val@U?$_List_simple_types@PAVIVisualController@@@std@@@std@@@std@@U?$iterator@Ubidirectional_iterator_tag@std@@PAVIVisualController@@HPAPAV3@AAPAV3@@2@@?$_Revranit@V?$_List_iterator@V?$_List_val@U?$_List_simple_types@PAVIVisualController@@@std@@@std@@@std@@U?$iterator@Ubidirectional_iterator_tag@std@@PAVIVisualController@@HPAPAV3@AAPAV3@@2@@std@@QBE_NABV01@@Z 00414010 f i nvidiautilsDEBUG:DeviceManager.obj
 0001:00013040       ??$_Insert@ABN@?$list@NV?$allocator@N@std@@@std@@QAEXV?$_List_unchecked_const_iterator@V?$_List_val@U?$_List_simple_types@N@std@@@std@@U_Iterator_base0@2@@1@ABN@Z 00414040 f i nvidiautilsDEBUG:DeviceManager.obj
 0001:000130c0       ??$_Insert@ABQAVIVisualController@@@?$list@PAVIVisualController@@V?$allocator@PAVIVisualController@@@std@@@std@@QAEXV?$_List_unchecked_const_iterator@V?$_List_val@U?$_List_simple_types@PAVIVisualController@@@std@@@std@@U_Iterator_base0@2@@1@ABQAVIVisualController@@@Z 004140c0 f i nvidiautilsDEBUG:DeviceManager.obj
 0001:00013140       ??$construct@NABN@?$_Wrap_alloc@V?$allocator@U?$_List_node@NPAX@std@@@std@@@std@@QAEXPANABN@Z 00414140 f i nvidiautilsDEBUG:DeviceManager.obj
 0001:00013170       ??$construct@NABN@?$allocator@U?$_List_node@NPAX@std@@@std@@QAEXPANABN@Z 00414170 f i nvidiautilsDEBUG:DeviceManager.obj
 0001:00013200       ??$construct@NABN@?$allocator_traits@V?$allocator@U?$_List_node@NPAX@std@@@std@@@std@@SAXAAV?$allocator@U?$_List_node@NPAX@std@@@1@PANABN@Z 00414200 f i nvidiautilsDEBUG:DeviceManager.obj
 0001:00013220       ??$construct@PADAAPAD@?$_Wrap_alloc@V?$allocator@D@std@@@std@@QAEXPAPADAAPAD@Z 00414220 f i DeferredRenderer.obj
 0001:00013220       ??$construct@PAUCacheEntry@@PAU1@@?$_Wrap_alloc@V?$allocator@PAUCacheEntry@@@std@@@std@@QAEXPAPAUCacheEntry@@$$QAPAU2@@Z 00414220 f i ObjMeshDX.obj
 0001:00013220       ??$construct@PAVObjMeshDX@@AAPAV1@@?$_Wrap_alloc@V?$allocator@PAVObjMeshDX@@@std@@@std@@QAEXPAPAVObjMeshDX@@AAPAV2@@Z 00414220 f i DeferredRenderer.obj
 0001:00013220       ??$construct@PAU?$_List_node@NPAX@std@@AAPAU12@@?$_Wrap_alloc@V?$allocator@U?$_List_node@NPAX@std@@@std@@@std@@QAEXPAPAU?$_List_node@NPAX@1@AAPAU21@@Z 00414220 f i DeferredShadingMSAA.obj
 0001:00013220       ??$construct@HAAH@?$_Wrap_alloc@V?$allocator@H@std@@@std@@QAEXPAHAAH@Z 00414220 f i ObjMeshDX.obj
 0001:00013220       ??$construct@PAU?$_List_node@PAVIVisualController@@PAX@std@@AAPAU12@@?$_Wrap_alloc@V?$allocator@U?$_List_node@PAVIVisualController@@PAX@std@@@std@@@std@@QAEXPAPAU?$_List_node@PAVIVisualController@@PAX@1@AAPAU21@@Z 00414220 f i DeferredShadingMSAA.obj
 0001:00013220       ??$construct@KAAK@?$_Wrap_alloc@V?$allocator@K@std@@@std@@QAEXPAKAAK@Z 00414220 f i ObjMeshDX.obj
 0001:00013220       ??$construct@PAUMaterial@@AAPAU1@@?$_Wrap_alloc@V?$allocator@PAUMaterial@@@std@@@std@@QAEXPAPAUMaterial@@AAPAU2@@Z 00414220 f i ObjMeshDX.obj
 0001:00013220       ??$construct@PAVIVisualController@@ABQAV1@@?$_Wrap_alloc@V?$allocator@U?$_List_node@PAVIVisualController@@PAX@std@@@std@@@std@@QAEXPAPAVIVisualController@@ABQAV2@@Z 00414220 f i nvidiautilsDEBUG:DeviceManager.obj
 0001:00013220       ??$construct@PA_WAAPA_W@?$_Wrap_alloc@V?$allocator@_W@std@@@std@@QAEXPAPA_WAAPA_W@Z 00414220 f i DeferredShadingMSAA.obj
 0001:00013220       ??$construct@KK@?$_Wrap_alloc@V?$allocator@K@std@@@std@@QAEXPAK$$QAK@Z 00414220 f i ObjMeshDX.obj
 0001:00013250       ??0?$_List_const_iterator@V?$_List_val@U?$_List_simple_types@PAVIVisualController@@@std@@@std@@@std@@QAE@PAU?$_List_node@PAVIVisualController@@PAX@1@PBV?$_List_val@U?$_List_simple_types@PAVIVisualController@@@std@@@1@@Z 00414250 f i nvidiautilsDEBUG:DeviceManager.obj
 0001:00013250       ??0?$_List_unchecked_iterator@V?$_List_val@U?$_List_simple_types@PAVIVisualController@@@std@@@std@@@std@@QAE@PAU?$_List_node@PAVIVisualController@@PAX@1@PBV?$_List_val@U?$_List_simple_types@PAVIVisualController@@@std@@@1@@Z 00414250 f i nvidiautilsDEBUG:DeviceManager.obj
 0001:00013250       ??0?$_List_const_iterator@V?$_List_val@U?$_List_simple_types@N@std@@@std@@@std@@QAE@PAU?$_List_node@NPAX@1@PBV?$_List_val@U?$_List_simple_types@N@std@@@1@@Z 00414250 f i nvidiautilsDEBUG:DeviceManager.obj
 0001:00013250       ??0?$_List_unchecked_iterator@V?$_List_val@U?$_List_simple_types@N@std@@@std@@@std@@QAE@PAU?$_List_node@NPAX@1@PBV?$_List_val@U?$_List_simple_types@N@std@@@1@@Z 00414250 f i nvidiautilsDEBUG:DeviceManager.obj
 0001:00013270       ??0?$_List_iterator@V?$_List_val@U?$_List_simple_types@PAVIVisualController@@@std@@@std@@@std@@QAE@PAU?$_List_node@PAVIVisualController@@PAX@1@PBV?$_List_val@U?$_List_simple_types@PAVIVisualController@@@std@@@1@@Z 00414270 f i nvidiautilsDEBUG:DeviceManager.obj
 0001:00013270       ??0?$_List_iterator@V?$_List_val@U?$_List_simple_types@N@std@@@std@@@std@@QAE@PAU?$_List_node@NPAX@1@PBV?$_List_val@U?$_List_simple_types@N@std@@@1@@Z 00414270 f i nvidiautilsDEBUG:DeviceManager.obj
 0001:00013290       ??0?$_Vector_const_iterator@V?$_Vector_val@U?$_Simple_types@H@std@@@std@@@std@@QAE@PAHPBU_Container_base0@1@@Z 00414290 f i ObjMeshDX.obj
 0001:00013290       ??0?$_List_unchecked_const_iterator@V?$_List_val@U?$_List_simple_types@PAVIVisualController@@@std@@@std@@U_Iterator_base0@2@@std@@QAE@PAU?$_List_node@PAVIVisualController@@PAX@1@PBV?$_List_val@U?$_List_simple_types@PAVIVisualController@@@std@@@1@@Z 00414290 f i nvidiautilsDEBUG:DeviceManager.obj
 0001:00013290       ??0?$_List_unchecked_const_iterator@V?$_List_val@U?$_List_simple_types@N@std@@@std@@U_Iterator_base0@2@@std@@QAE@PAU?$_List_node@NPAX@1@PBV?$_List_val@U?$_List_simple_types@N@std@@@1@@Z 00414290 f i nvidiautilsDEBUG:DeviceManager.obj
 0001:000132c0       ??0?$_Revranit@V?$_List_iterator@V?$_List_val@U?$_List_simple_types@PAVIVisualController@@@std@@@std@@@std@@U?$iterator@Ubidirectional_iterator_tag@std@@PAVIVisualController@@HPAPAV3@AAPAV3@@2@@std@@QAE@V?$_List_iterator@V?$_List_val@U?$_List_simple_types@PAVIVisualController@@@std@@@std@@@1@@Z 004142c0 f i nvidiautilsDEBUG:DeviceManager.obj
 0001:000132e0       ??0?$reverse_iterator@V?$_List_iterator@V?$_List_val@U?$_List_simple_types@PAVIVisualController@@@std@@@std@@@std@@@std@@QAE@V?$_List_iterator@V?$_List_val@U?$_List_simple_types@PAVIVisualController@@@std@@@std@@@1@@Z 004142e0 f i nvidiautilsDEBUG:DeviceManager.obj
 0001:00013300       ??4?$basic_string@_WU?$char_traits@_W@std@@V?$allocator@_W@2@@std@@QAEAAV01@PB_W@Z 00414300 f i nvidiautilsDEBUG:DeviceManager.obj
 0001:00013320       ??8?$_List_const_iterator@V?$_List_val@U?$_List_simple_types@N@std@@@std@@@std@@QBE_NABV01@@Z 00414320 f i nvidiautilsDEBUG:DeviceManager.obj
 0001:00013320       ??8?$_List_const_iterator@V?$_List_val@U?$_List_simple_types@PAVIVisualController@@@std@@@std@@@std@@QBE_NABV01@@Z 00414320 f i nvidiautilsDEBUG:DeviceManager.obj
 0001:00013350       ??9?$_List_const_iterator@V?$_List_val@U?$_List_simple_types@N@std@@@std@@@std@@QBE_NABV01@@Z 00414350 f i nvidiautilsDEBUG:DeviceManager.obj
 0001:00013350       ??9?$_List_const_iterator@V?$_List_val@U?$_List_simple_types@PAVIVisualController@@@std@@@std@@@std@@QBE_NABV01@@Z 00414350 f i nvidiautilsDEBUG:DeviceManager.obj
 0001:00013390       ??D?$_List_const_iterator@V?$_List_val@U?$_List_simple_types@N@std@@@std@@@std@@QBEABNXZ 00414390 f i nvidiautilsDEBUG:DeviceManager.obj
 0001:00013390       ??D?$_List_const_iterator@V?$_List_val@U?$_List_simple_types@PAVIVisualController@@@std@@@std@@@std@@QBEABQAVIVisualController@@XZ 00414390 f i nvidiautilsDEBUG:DeviceManager.obj
 0001:000133b0       ??D?$_List_iterator@V?$_List_val@U?$_List_simple_types@N@std@@@std@@@std@@QBEAANXZ 004143b0 f i nvidiautilsDEBUG:DeviceManager.obj
 0001:000133b0       ??D?$_List_iterator@V?$_List_val@U?$_List_simple_types@PAVIVisualController@@@std@@@std@@@std@@QBEAAPAVIVisualController@@XZ 004143b0 f i nvidiautilsDEBUG:DeviceManager.obj
 0001:000133d0       ??D?$_Revranit@V?$_List_iterator@V?$_List_val@U?$_List_simple_types@PAVIVisualController@@@std@@@std@@@std@@U?$iterator@Ubidirectional_iterator_tag@std@@PAVIVisualController@@HPAPAV3@AAPAV3@@2@@std@@QBEAAPAVIVisualController@@XZ 004143d0 f i nvidiautilsDEBUG:DeviceManager.obj
 0001:00013400       ??E?$_List_const_iterator@V?$_List_val@U?$_List_simple_types@PAVIVisualController@@@std@@@std@@@std@@QAE?AV01@H@Z 00414400 f i nvidiautilsDEBUG:DeviceManager.obj
 0001:00013430       ??E?$_List_const_iterator@V?$_List_val@U?$_List_simple_types@N@std@@@std@@@std@@QAEAAV01@XZ 00414430 f i nvidiautilsDEBUG:DeviceManager.obj
 0001:00013430       ??E?$_List_const_iterator@V?$_List_val@U?$_List_simple_types@PAVIVisualController@@@std@@@std@@@std@@QAEAAV01@XZ 00414430 f i nvidiautilsDEBUG:DeviceManager.obj
 0001:00013460       ??E?$_List_iterator@V?$_List_val@U?$_List_simple_types@PAVIVisualController@@@std@@@std@@@std@@QAE?AV01@H@Z 00414460 f i nvidiautilsDEBUG:DeviceManager.obj
 0001:00013460       ??E?$_List_iterator@V?$_List_val@U?$_List_simple_types@N@std@@@std@@@std@@QAE?AV01@H@Z 00414460 f i nvidiautilsDEBUG:DeviceManager.obj
 0001:00013490       ??E?$_List_iterator@V?$_List_val@U?$_List_simple_types@N@std@@@std@@@std@@QAEAAV01@XZ 00414490 f i nvidiautilsDEBUG:DeviceManager.obj
 0001:00013490       ??E?$_List_iterator@V?$_List_val@U?$_List_simple_types@PAVIVisualController@@@std@@@std@@@std@@QAEAAV01@XZ 00414490 f i nvidiautilsDEBUG:DeviceManager.obj
 0001:000134b0       ??E?$_Revranit@V?$_List_iterator@V?$_List_val@U?$_List_simple_types@PAVIVisualController@@@std@@@std@@@std@@U?$iterator@Ubidirectional_iterator_tag@std@@PAVIVisualController@@HPAPAV3@AAPAV3@@2@@std@@QAEAAV01@XZ 004144b0 f i nvidiautilsDEBUG:DeviceManager.obj
 0001:000134d0       ??E?$reverse_iterator@V?$_List_iterator@V?$_List_val@U?$_List_simple_types@PAVIVisualController@@@std@@@std@@@std@@@std@@QAE?AV01@H@Z 004144d0 f i nvidiautilsDEBUG:DeviceManager.obj
 0001:00013500       ??E?$reverse_iterator@V?$_List_iterator@V?$_List_val@U?$_List_simple_types@PAVIVisualController@@@std@@@std@@@std@@@std@@QAEAAV01@XZ 00414500 f i nvidiautilsDEBUG:DeviceManager.obj
 0001:00013520       ??F?$_List_const_iterator@V?$_List_val@U?$_List_simple_types@PAVIVisualController@@@std@@@std@@@std@@QAEAAV01@XZ 00414520 f i nvidiautilsDEBUG:DeviceManager.obj
 0001:00013550       ??F?$_List_iterator@V?$_List_val@U?$_List_simple_types@PAVIVisualController@@@std@@@std@@@std@@QAEAAV01@XZ 00414550 f i nvidiautilsDEBUG:DeviceManager.obj
 0001:00013570       ?_Incsize@?$list@NV?$allocator@N@std@@@std@@QAEXI@Z 00414570 f i nvidiautilsDEBUG:DeviceManager.obj
 0001:000135b0       ?_Incsize@?$list@PAVIVisualController@@V?$allocator@PAVIVisualController@@@std@@@std@@QAEXI@Z 004145b0 f i nvidiautilsDEBUG:DeviceManager.obj
 0001:000135f0       ?_Make_iter@?$list@PAVIVisualController@@V?$allocator@PAVIVisualController@@@std@@@std@@QBE?AV?$_List_iterator@V?$_List_val@U?$_List_simple_types@PAVIVisualController@@@std@@@std@@@2@V?$_List_const_iterator@V?$_List_val@U?$_List_simple_types@PAVIVisualController@@@std@@@std@@@2@@Z 004145f0 f i nvidiautilsDEBUG:DeviceManager.obj
 0001:00013610       ?_Unchecked_begin@?$list@PAVIVisualController@@V?$allocator@PAVIVisualController@@@std@@@std@@QAE?AV?$_List_unchecked_iterator@V?$_List_val@U?$_List_simple_types@PAVIVisualController@@@std@@@std@@@2@XZ 00414610 f i nvidiautilsDEBUG:DeviceManager.obj
 0001:00013640       ?_Unchecked_end@?$list@NV?$allocator@N@std@@@std@@QAE?AV?$_List_unchecked_iterator@V?$_List_val@U?$_List_simple_types@N@std@@@std@@@2@XZ 00414640 f i nvidiautilsDEBUG:DeviceManager.obj
 0001:00013640       ?_Unchecked_end@?$list@PAVIVisualController@@V?$allocator@PAVIVisualController@@@std@@@std@@QAE?AV?$_List_unchecked_iterator@V?$_List_val@U?$_List_simple_types@PAVIVisualController@@@std@@@std@@@2@XZ 00414640 f i nvidiautilsDEBUG:DeviceManager.obj
 0001:00013670       ?_Unlinknode@?$list@PAVIVisualController@@V?$allocator@PAVIVisualController@@@std@@@std@@QAEPAU?$_List_node@PAVIVisualController@@PAX@2@V?$_List_const_iterator@V?$_List_val@U?$_List_simple_types@PAVIVisualController@@@std@@@std@@@2@@Z 00414670 f i nvidiautilsDEBUG:DeviceManager.obj
 0001:000136f0       ?base@?$_Revranit@V?$_List_iterator@V?$_List_val@U?$_List_simple_types@PAVIVisualController@@@std@@@std@@@std@@U?$iterator@Ubidirectional_iterator_tag@std@@PAVIVisualController@@HPAPAV3@AAPAV3@@2@@std@@QBE?AV?$_List_iterator@V?$_List_val@U?$_List_simple_types@PAVIVisualController@@@std@@@std@@@2@XZ 004146f0 f i nvidiautilsDEBUG:DeviceManager.obj
 0001:00013710       ?begin@?$list@PAVIVisualController@@V?$allocator@PAVIVisualController@@@std@@@std@@QAE?AV?$_List_iterator@V?$_List_val@U?$_List_simple_types@PAVIVisualController@@@std@@@std@@@2@XZ 00414710 f i nvidiautilsDEBUG:DeviceManager.obj
 0001:00013710       ?begin@?$list@NV?$allocator@N@std@@@std@@QAE?AV?$_List_iterator@V?$_List_val@U?$_List_simple_types@N@std@@@std@@@2@XZ 00414710 f i nvidiautilsDEBUG:DeviceManager.obj
 0001:00013740       ?c_str@?$basic_string@_WU?$char_traits@_W@std@@V?$allocator@_W@2@@std@@QBEPB_WXZ 00414740 f i nvidiautilsDEBUG:DeviceManager.obj
 0001:00013760       ?end@?$list@NV?$allocator@N@std@@@std@@QAE?AV?$_List_iterator@V?$_List_val@U?$_List_simple_types@N@std@@@std@@@2@XZ 00414760 f i nvidiautilsDEBUG:DeviceManager.obj
 0001:00013760       ?end@?$list@PAVIVisualController@@V?$allocator@PAVIVisualController@@@std@@@std@@QAE?AV?$_List_iterator@V?$_List_val@U?$_List_simple_types@PAVIVisualController@@@std@@@std@@@2@XZ 00414760 f i nvidiautilsDEBUG:DeviceManager.obj
 0001:00013790       ?erase@?$list@PAVIVisualController@@V?$allocator@PAVIVisualController@@@std@@@std@@QAE?AV?$_List_iterator@V?$_List_val@U?$_List_simple_types@PAVIVisualController@@@std@@@std@@@2@V?$_List_const_iterator@V?$_List_val@U?$_List_simple_types@PAVIVisualController@@@std@@@std@@@2@@Z 00414790 f i nvidiautilsDEBUG:DeviceManager.obj
 0001:000137e0       ?max_size@?$_Wrap_alloc@V?$allocator@UMeshFace@@@std@@@std@@QBEIXZ 004147e0 f i ObjMeshDX.obj
 0001:000137e0       ?max_size@?$_Wrap_alloc@V?$allocator@U?$_List_node@NPAX@std@@@std@@@std@@QBEIXZ 004147e0 f i nvidiautilsDEBUG:DeviceManager.obj
 0001:000137e0       ?max_size@?$_Wrap_alloc@V?$allocator@UVertexFace@?3??ComputeVertexNormals@ObjMeshDX@@AAEXXZ@@std@@@std@@QBEIXZ 004147e0 f i ObjMeshDX.obj
 0001:00013800       ?max_size@?$_Wrap_alloc@V?$allocator@UD3DXVECTOR3@@@std@@@std@@QBEIXZ 00414800 f i ObjMeshDX.obj
 0001:00013800       ?max_size@?$_Wrap_alloc@V?$allocator@U?$_List_node@PAVIVisualController@@PAX@std@@@std@@@std@@QBEIXZ 00414800 f i nvidiautilsDEBUG:DeviceManager.obj
 0001:00013820       ?max_size@?$allocator@UVertexFace@?3??ComputeVertexNormals@ObjMeshDX@@AAEXXZ@@std@@QBEIXZ 00414820 f i ObjMeshDX.obj
 0001:00013820       ?max_size@?$allocator@UMeshFace@@@std@@QBEIXZ 00414820 f i ObjMeshDX.obj
 0001:00013820       ?max_size@?$allocator@U?$_List_node@NPAX@std@@@std@@QBEIXZ 00414820 f i nvidiautilsDEBUG:DeviceManager.obj
 0001:00013830       ?max_size@?$allocator_traits@V?$allocator@UVertexFace@?3??ComputeVertexNormals@ObjMeshDX@@AAEXXZ@@std@@@std@@SAIABV?$allocator@UVertexFace@?3??ComputeVertexNormals@ObjMeshDX@@AAEXXZ@@2@@Z 00414830 f i ObjMeshDX.obj
 0001:00013830       ?max_size@?$allocator_traits@V?$allocator@UMeshFace@@@std@@@std@@SAIABV?$allocator@UMeshFace@@@2@@Z 00414830 f i ObjMeshDX.obj
 0001:00013830       ?max_size@?$allocator_traits@V?$allocator@U?$_List_node@NPAX@std@@@std@@@std@@SAIABV?$allocator@U?$_List_node@NPAX@std@@@2@@Z 00414830 f i nvidiautilsDEBUG:DeviceManager.obj
 0001:00013840       ?max_size@?$vector@UVertexFace@?3??ComputeVertexNormals@ObjMeshDX@@AAEXXZ@V?$allocator@UVertexFace@?3??ComputeVertexNormals@ObjMeshDX@@AAEXXZ@@std@@@std@@QBEIXZ 00414840 f i ObjMeshDX.obj
 0001:00013840       ?max_size@?$vector@UMeshFace@@V?$allocator@UMeshFace@@@std@@@std@@QBEIXZ 00414840 f i ObjMeshDX.obj
 0001:00013840       ?max_size@?$list@NV?$allocator@N@std@@@std@@QBEIXZ 00414840 f i nvidiautilsDEBUG:DeviceManager.obj
 0001:00013860       ?max_size@?$list@PAVIVisualController@@V?$allocator@PAVIVisualController@@@std@@@std@@QBEIXZ 00414860 f i nvidiautilsDEBUG:DeviceManager.obj
 0001:00013860       ?max_size@?$vector@UD3DXVECTOR3@@V?$allocator@UD3DXVECTOR3@@@std@@@std@@QBEIXZ 00414860 f i ObjMeshDX.obj
 0001:00013880       ?push_back@?$list@NV?$allocator@N@std@@@std@@QAEXABN@Z 00414880 f i nvidiautilsDEBUG:DeviceManager.obj
 0001:000138b0       ?push_back@?$list@PAVIVisualController@@V?$allocator@PAVIVisualController@@@std@@@std@@QAEXABQAVIVisualController@@@Z 004148b0 f i nvidiautilsDEBUG:DeviceManager.obj
 0001:000138e0       ?push_front@?$list@PAVIVisualController@@V?$allocator@PAVIVisualController@@@std@@@std@@QAEXABQAVIVisualController@@@Z 004148e0 f i nvidiautilsDEBUG:DeviceManager.obj
 0001:00013910       ?rbegin@?$list@PAVIVisualController@@V?$allocator@PAVIVisualController@@@std@@@std@@QAE?AV?$reverse_iterator@V?$_List_iterator@V?$_List_val@U?$_List_simple_types@PAVIVisualController@@@std@@@std@@@std@@@2@XZ 00414910 f i nvidiautilsDEBUG:DeviceManager.obj
 0001:00013940       ?remove@?$list@PAVIVisualController@@V?$allocator@PAVIVisualController@@@std@@@std@@QAEXABQAVIVisualController@@@Z 00414940 f i nvidiautilsDEBUG:DeviceManager.obj
 0001:00013a30       ?rend@?$list@PAVIVisualController@@V?$allocator@PAVIVisualController@@@std@@@std@@QAE?AV?$reverse_iterator@V?$_List_iterator@V?$_List_val@U?$_List_simple_types@PAVIVisualController@@@std@@@std@@@std@@@2@XZ 00414a30 f i nvidiautilsDEBUG:DeviceManager.obj
 0001:00013a60       ??$_DebugHeapDelete@U_Fac_node@std@@@std@@YAXPAU_Fac_node@0@@Z 00414a60 f i msvcprtd:locale0_implib.obj
 0001:00013a90       ??1_Fac_node@std@@QAE@XZ   00414a90 f i msvcprtd:locale0_implib.obj
 0001:00013ac0       ??1_Fac_tidy_reg_t@std@@QAE@XZ 00414ac0 f i msvcprtd:locale0_implib.obj
 0001:00013b00       ??_G_Fac_node@std@@QAEPAXI@Z 00414b00 f i msvcprtd:locale0_implib.obj
 0001:00013b30       ?_Facet_Register@std@@YAXPAV_Facet_base@1@@Z 00414b30 f   msvcprtd:locale0_implib.obj
 0001:00013bc8       ?showmanyc@?$basic_streambuf@_WU?$char_traits@_W@std@@@std@@MAE_JXZ 00414bc8 f   msvcprtd:MSVCP120D.dll
 0001:00013bce       ?xsgetn@?$basic_streambuf@_WU?$char_traits@_W@std@@@std@@MAE_JPA_W_J@Z 00414bce f   msvcprtd:MSVCP120D.dll
 0001:00013bd4       ?xsputn@?$basic_streambuf@_WU?$char_traits@_W@std@@@std@@MAE_JPB_W_J@Z 00414bd4 f   msvcprtd:MSVCP120D.dll
 0001:00013bda       __purecall                 00414bda f   MSVCRTD:MSVCR120D.dll
 0001:00013be0       ??2@YAPAXI@Z               00414be0 f   MSVCRTD:MSVCR120D.dll
 0001:00013be6       ??3@YAXPAX@Z               00414be6 f   MSVCRTD:MSVCR120D.dll
 0001:00013bf0       ___atonexitinit            00414bf0 f   MSVCRTD:atonexit.obj
 0001:00013ca0       __onexit                   00414ca0 f   MSVCRTD:atonexit.obj
 0001:00013da0       _atexit                    00414da0 f   MSVCRTD:atonexit.obj
 0001:00013dd0       @__security_check_cookie@4 00414dd0 f   MSVCRTD:secchk.obj
 0001:00013de0       __CxxThrowException@8      00414de0 f   MSVCRTD:MSVCR120D.dll
 0001:00013de6       ___CxxFrameHandler3        00414de6 f   MSVCRTD:MSVCR120D.dll
 0001:00013dec       _memcpy                    00414dec f   MSVCRTD:MSVCR120D.dll
 0001:00013df2       _memset                    00414df2 f   MSVCRTD:MSVCR120D.dll
 0001:00013e00       ??_Etype_info@@UAEPAXI@Z   00414e00 f i MSVCRTD:ti_inst.obj
 0001:00013e70       ??0bad_cast@std@@QAE@ABV01@@Z 00414e70 f   MSVCRTD:MSVCR120D.dll
 0001:00013e76       ??0exception@std@@QAE@ABV01@@Z 00414e76 f   MSVCRTD:MSVCR120D.dll
 0001:00013e7c       ??1bad_cast@std@@UAE@XZ    00414e7c f   MSVCRTD:MSVCR120D.dll
 0001:00013e82       _memcmp                    00414e82 f   MSVCRTD:MSVCR120D.dll
 0001:00013f80       _NtCurrentTeb              00414f80 f i MSVCRTD:wcrtexew.obj
 0001:000142e0       _wWinMainCRTStartup        004152e0 f   MSVCRTD:wcrtexew.obj
 0001:000142f0       ___libm_sse2_atan2         004152f0 f   MSVCRTD:MSVCR120D.dll
 0001:00014300       __ftoui3                   00415300 f   MSVCRTD:ftol3.obj
 0001:0001430f       __ftoul3                   0041530f f   MSVCRTD:ftol3.obj
 0001:0001431e       __ftol3                    0041531e f   MSVCRTD:ftol3.obj
 0001:0001432b       __ftol3_NaN                0041532b f   MSVCRTD:ftol3.obj
 0001:00014343       __ftol3_work               00415343 f   MSVCRTD:ftol3.obj
 0001:000143c9       __ftol3_common             004153c9 f   MSVCRTD:ftol3.obj
 0001:0001448b       __ftol3_arg_error          0041548b f   MSVCRTD:ftol3.obj
 0001:0001449d       __ftol3_except             0041549d f   MSVCRTD:ftol3.obj
 0001:000144e1       __dtoui3                   004154e1 f   MSVCRTD:ftol3.obj
 0001:000144f0       __dtoul3                   004154f0 f   MSVCRTD:ftol3.obj
 0001:000144ff       __dtol3                    004154ff f   MSVCRTD:ftol3.obj
 0001:0001450c       __dtol3_NaN                0041550c f   MSVCRTD:ftol3.obj
 0001:00014529       __dtol3_work               00415529 f   MSVCRTD:ftol3.obj
 0001:0001460e       __ultod3                   0041560e f   MSVCRTD:ftol3.obj
 0001:0001469f       __ltod3                    0041569f f   MSVCRTD:ftol3.obj
 0001:000146ce       __lock                     004156ce f   MSVCRTD:MSVCR120D.dll
 0001:000146d4       __unlock                   004156d4 f   MSVCRTD:MSVCR120D.dll
 0001:000146da       ___dllonexit               004156da f   MSVCRTD:MSVCR120D.dll
 0001:000146e0       __except_handler4          004156e0 f   MSVCRTD:chandler4gs.obj
 0001:00014710       ___raise_securityfailure   00415710 f   MSVCRTD:gs_report.obj
 0001:00014760       ___report_gsfailure        00415760 f   MSVCRTD:gs_report.obj
 0001:00014870       ??_M@YGXPAXIHP6EX0@Z@Z     00415870 f   MSVCRTD:ehvecdtr.obj
 0001:00014950       ?__ArrayUnwind@@YGXPAXIHP6EX0@Z@Z 00415950 f   MSVCRTD:ehvecdtr.obj
 0001:000149da       ??1type_info@@UAE@XZ       004159da f   MSVCRTD:MSVCR120D.dll
 0001:000149e0       ?__CxxUnhandledExceptionFilter@@YGJPAU_EXCEPTION_POINTERS@@@Z 004159e0 f   MSVCRTD:unhandld.obj
 0001:00014a50       ___CxxSetUnhandledExceptionFilter 00415a50 f   MSVCRTD:unhandld.obj
 0001:00014a64       __XcptFilter               00415a64 f   MSVCRTD:MSVCR120D.dll
 0001:00014a6a       __amsg_exit                00415a6a f   MSVCRTD:MSVCR120D.dll
 0001:00014a70       __FindPESection            00415a70 f   MSVCRTD:pesect.obj
 0001:00014af0       __IsNonwritableInCurrentImage 00415af0 f   MSVCRTD:pesect.obj
 0001:00014c20       __ValidateImageBase        00415c20 f   MSVCRTD:pesect.obj
 0001:00014c80       ___security_init_cookie    00415c80 f   MSVCRTD:gs_support.obj
 0001:00014d60       __RTC_Initialize           00415d60 f   MSVCRTD:initsect.obj
 0001:00014d90       __RTC_Terminate            00415d90 f   MSVCRTD:initsect.obj
 0001:00014dc0       __invoke_watson_if_error   00415dc0 f i MSVCRTD:fp8.obj
 0001:00014df0       __setdefaultprecision      00415df0 f   MSVCRTD:fp8.obj
 0001:00014e26       __initterm_e               00415e26 f   MSVCRTD:MSVCR120D.dll
 0001:00014e2c       __initterm                 00415e2c f   MSVCRTD:MSVCR120D.dll
 0001:00014e32       __except1                  00415e32 f   MSVCRTD:MSVCR120D.dll
 0001:00014e38       __except_handler4_common   00415e38 f   MSVCRTD:MSVCR120D.dll
 0001:00014e3e       __crt_debugger_hook        00415e3e f   MSVCRTD:MSVCR120D.dll
 0001:00014e44       ___crtUnhandledException   00415e44 f   MSVCRTD:MSVCR120D.dll
 0001:00014e4a       ___crtTerminateProcess     00415e4a f   MSVCRTD:MSVCR120D.dll
 0001:00014e50       ?terminate@@YAXXZ          00415e50 f   MSVCRTD:MSVCR120D.dll
 0001:00014e56       ___crtSetUnhandledExceptionFilter 00415e56 f   MSVCRTD:MSVCR120D.dll
 0001:00014e5c       __invoke_watson            00415e5c f   MSVCRTD:MSVCR120D.dll
 0001:00014e62       __controlfp_s              00415e62 f   MSVCRTD:MSVCR120D.dll
 0001:00014e68       _XInputGetState@8          00415e68 f   xinput:XINPUT1_3.dll
 0001:00014e6e       _D3D11CreateDeviceAndSwapChain@48 00415e6e f   d3d11:d3d11.dll
 0001:00014e74       _D3DXVec3TransformCoord@12 00415e74 f   d3dx9:d3dx9_43.dll
 0001:00014e7a       _D3DXMatrixTranslation@16  00415e7a f   d3dx9:d3dx9_43.dll
 0001:00014e80       _D3DXMatrixRotationQuaternion@8 00415e80 f   d3dx9:d3dx9_43.dll
 0001:00014e86       _D3DXMatrixRotationYawPitchRoll@16 00415e86 f   d3dx9:d3dx9_43.dll
 0001:00014e8c       _D3DXMatrixLookAtLH@16     00415e8c f   d3dx9:d3dx9_43.dll
 0001:00014e92       _D3DXMatrixPerspectiveFovLH@20 00415e92 f   d3dx9:d3dx9_43.dll
 0001:00014e98       _D3DXQuaternionRotationMatrix@8 00415e98 f   d3dx9:d3dx9_43.dll
 0001:00014e9e       _D3DXQuaternionMultiply@12 00415e9e f   d3dx9:d3dx9_43.dll
 0001:00014ea4       _IsProcessorFeaturePresent@4 00415ea4 f   kernel32:KERNEL32.dll
 0002:00000000       __imp__TwAddVarRW@20       00417000     AntTweakBar:AntTweakBar.dll
 0002:00000004       __imp__TwDefine@4          00417004     AntTweakBar:AntTweakBar.dll
 0002:00000008       __imp__TwDefineEnum@12     00417008     AntTweakBar:AntTweakBar.dll
 0002:0000000c       __imp__TwBeginText@16      0041700c     AntTweakBar:AntTweakBar.dll
 0002:00000010       __imp__TwAddTextLine@12    00417010     AntTweakBar:AntTweakBar.dll
 0002:00000014       __imp__TwEndText@0         00417014     AntTweakBar:AntTweakBar.dll
 0002:00000018       __imp__TwInit@8            00417018     AntTweakBar:AntTweakBar.dll
 0002:0000001c       __imp__TwTerminate@0       0041701c     AntTweakBar:AntTweakBar.dll
 0002:00000020       __imp__TwDraw@0            00417020     AntTweakBar:AntTweakBar.dll
 0002:00000024       __imp__TwWindowSize@8      00417024     AntTweakBar:AntTweakBar.dll
 0002:00000028       __imp__TwEventWin@16       00417028     AntTweakBar:AntTweakBar.dll
 0002:0000002c       __imp__TwNewBar@4          0041702c     AntTweakBar:AntTweakBar.dll
 0002:00000030       \177AntTweakBar_NULL_THUNK_DATA 00417030     AntTweakBar:AntTweakBar.dll
 0002:00000034       __imp__OutputDebugStringA@4 00417034     kernel32:KERNEL32.dll
 0002:00000038       __imp__QueryPerformanceFrequency@4 00417038     kernel32:KERNEL32.dll
 0002:0000003c       __imp__Sleep@4             0041703c     kernel32:KERNEL32.dll
 0002:00000040       __imp__GetModuleHandleW@4  00417040     kernel32:KERNEL32.dll
 0002:00000044       __imp__EncodePointer@4     00417044     kernel32:KERNEL32.dll
 0002:00000048       __imp__DecodePointer@4     00417048     kernel32:KERNEL32.dll
 0002:0000004c       __imp__IsDebuggerPresent@0 0041704c     kernel32:KERNEL32.dll
 0002:00000050       __imp__IsProcessorFeaturePresent@4 00417050     kernel32:KERNEL32.dll
 0002:00000054       __imp__GetCurrentProcessId@0 00417054     kernel32:KERNEL32.dll
 0002:00000058       __imp__GetCurrentThreadId@0 00417058     kernel32:KERNEL32.dll
 0002:0000005c       __imp__QueryPerformanceCounter@4 0041705c     kernel32:KERNEL32.dll
 0002:00000060       __imp__GetSystemTimeAsFileTime@4 00417060     kernel32:KERNEL32.dll
 0002:00000064       \177KERNEL32_NULL_THUNK_DATA 00417064     kernel32:KERNEL32.dll
 0002:00000068       __imp_?always_noconv@codecvt_base@std@@QBE_NXZ 00417068     msvcprtd:MSVCP120D.dll
 0002:0000006c       __imp_?in@?$codecvt@_WDH@std@@QBEHAAHPBD1AAPBDPA_W3AAPA_W@Z 0041706c     msvcprtd:MSVCP120D.dll
 0002:00000070       __imp_?out@?$codecvt@_WDH@std@@QBEHAAHPB_W1AAPB_WPAD3AAPAD@Z 00417070     msvcprtd:MSVCP120D.dll
 0002:00000074       __imp_?unshift@?$codecvt@_WDH@std@@QBEHAAHPAD1AAPAD@Z 00417074     msvcprtd:MSVCP120D.dll
 0002:00000078       __imp_?_Getcat@?$codecvt@_WDH@std@@SAIPAPBVfacet@locale@2@PBV42@@Z 00417078     msvcprtd:MSVCP120D.dll
 0002:0000007c       __imp_?is@?$ctype@_W@std@@QBE_NF_W@Z 0041707c     msvcprtd:MSVCP120D.dll
 0002:00000080       __imp_?_Getcat@?$ctype@_W@std@@SAIPAPBVfacet@locale@2@PBV42@@Z 00417080     msvcprtd:MSVCP120D.dll
 0002:00000084       __imp_??7ios_base@std@@QBE_NXZ 00417084     msvcprtd:MSVCP120D.dll
 0002:00000088       __imp_?width@ios_base@std@@QBE_JXZ 00417088     msvcprtd:MSVCP120D.dll
 0002:0000008c       __imp_?width@ios_base@std@@QAE_J_J@Z 0041708c     msvcprtd:MSVCP120D.dll
 0002:00000090       __imp_?getloc@ios_base@std@@QBE?AVlocale@2@XZ 00417090     msvcprtd:MSVCP120D.dll
 0002:00000094       __imp_??0?$basic_streambuf@_WU?$char_traits@_W@std@@@std@@IAE@XZ 00417094     msvcprtd:MSVCP120D.dll
 0002:00000098       __imp_??1?$basic_streambuf@_WU?$char_traits@_W@std@@@std@@UAE@XZ 00417098     msvcprtd:MSVCP120D.dll
 0002:0000009c       __imp_?getloc@?$basic_streambuf@_WU?$char_traits@_W@std@@@std@@QBE?AVlocale@2@XZ 0041709c     msvcprtd:MSVCP120D.dll
 0002:000000a0       __imp_?sgetc@?$basic_streambuf@_WU?$char_traits@_W@std@@@std@@QAEGXZ 004170a0     msvcprtd:MSVCP120D.dll
 0002:000000a4       __imp_?snextc@?$basic_streambuf@_WU?$char_traits@_W@std@@@std@@QAEGXZ 004170a4     msvcprtd:MSVCP120D.dll
 0002:000000a8       __imp_?eback@?$basic_streambuf@_WU?$char_traits@_W@std@@@std@@IBEPA_WXZ 004170a8     msvcprtd:MSVCP120D.dll
 0002:000000ac       __imp_?gptr@?$basic_streambuf@_WU?$char_traits@_W@std@@@std@@IBEPA_WXZ 004170ac     msvcprtd:MSVCP120D.dll
 0002:000000b0       __imp_?_Getgloballocale@locale@std@@CAPAV_Locimp@12@XZ 004170b0     msvcprtd:MSVCP120D.dll
 0002:000000b4       __imp_?egptr@?$basic_streambuf@_WU?$char_traits@_W@std@@@std@@IBEPA_WXZ 004170b4     msvcprtd:MSVCP120D.dll
 0002:000000b8       __imp_?setg@?$basic_streambuf@_WU?$char_traits@_W@std@@@std@@IAEXPA_W00@Z 004170b8     msvcprtd:MSVCP120D.dll
 0002:000000bc       __imp_?epptr@?$basic_streambuf@_WU?$char_traits@_W@std@@@std@@IBEPA_WXZ 004170bc     msvcprtd:MSVCP120D.dll
 0002:000000c0       __imp_?_Gndec@?$basic_streambuf@_WU?$char_traits@_W@std@@@std@@IAEPA_WXZ 004170c0     msvcprtd:MSVCP120D.dll
 0002:000000c4       __imp_?_Gninc@?$basic_streambuf@_WU?$char_traits@_W@std@@@std@@IAEPA_WXZ 004170c4     msvcprtd:MSVCP120D.dll
 0002:000000c8       __imp_?_Pninc@?$basic_streambuf@_WU?$char_traits@_W@std@@@std@@IAEPA_WXZ 004170c8     msvcprtd:MSVCP120D.dll
 0002:000000cc       __imp_?_Init@?$basic_streambuf@_WU?$char_traits@_W@std@@@std@@IAEXXZ 004170cc     msvcprtd:MSVCP120D.dll
 0002:000000d0       __imp_?_Init@?$basic_streambuf@_WU?$char_traits@_W@std@@@std@@IAEXPAPA_W0PAH001@Z 004170d0     msvcprtd:MSVCP120D.dll
 0002:000000d4       __imp_??1?$basic_ios@_WU?$char_traits@_W@std@@@std@@UAE@XZ 004170d4     msvcprtd:MSVCP120D.dll
 0002:000000d8       __imp_?setstate@?$basic_ios@_WU?$char_traits@_W@std@@@std@@QAEXH_N@Z 004170d8     msvcprtd:MSVCP120D.dll
 0002:000000dc       __imp_?rdbuf@?$basic_ios@_WU?$char_traits@_W@std@@@std@@QBEPAV?$basic_streambuf@_WU?$char_traits@_W@std@@@2@XZ 004170dc     msvcprtd:MSVCP120D.dll
 0002:000000e0       __imp_??0?$basic_ios@_WU?$char_traits@_W@std@@@std@@IAE@XZ 004170e0     msvcprtd:MSVCP120D.dll
 0002:000000e4       __imp_??0?$basic_istream@_WU?$char_traits@_W@std@@@std@@QAE@PAV?$basic_streambuf@_WU?$char_traits@_W@std@@@1@_N@Z 004170e4     msvcprtd:MSVCP120D.dll
 0002:000000e8       __imp_??1?$basic_istream@_WU?$char_traits@_W@std@@@std@@UAE@XZ 004170e8     msvcprtd:MSVCP120D.dll
 0002:000000ec       __imp_?_Ipfx@?$basic_istream@_WU?$char_traits@_W@std@@@std@@QAE_N_N@Z 004170ec     msvcprtd:MSVCP120D.dll
 0002:000000f0       __imp_??5?$basic_istream@_WU?$char_traits@_W@std@@@std@@QAEAAV01@AAH@Z 004170f0     msvcprtd:MSVCP120D.dll
 0002:000000f4       __imp_??5?$basic_istream@_WU?$char_traits@_W@std@@@std@@QAEAAV01@AAI@Z 004170f4     msvcprtd:MSVCP120D.dll
 0002:000000f8       __imp_??5?$basic_istream@_WU?$char_traits@_W@std@@@std@@QAEAAV01@AAM@Z 004170f8     msvcprtd:MSVCP120D.dll
 0002:000000fc       __imp_?ignore@?$basic_istream@_WU?$char_traits@_W@std@@@std@@QAEAAV12@_JG@Z 004170fc     msvcprtd:MSVCP120D.dll
 0002:00000100       __imp_?peek@?$basic_istream@_WU?$char_traits@_W@std@@@std@@QAEGXZ 00417100     msvcprtd:MSVCP120D.dll
 0002:00000104       __imp_?_Fiopen@std@@YAPAU_iobuf@@PB_WHH@Z 00417104     msvcprtd:MSVCP120D.dll
 0002:00000108       __imp_?showmanyc@?$basic_streambuf@_WU?$char_traits@_W@std@@@std@@MAE_JXZ 00417108     msvcprtd:MSVCP120D.dll
 0002:0000010c       __imp_?xsgetn@?$basic_streambuf@_WU?$char_traits@_W@std@@@std@@MAE_JPA_W_J@Z 0041710c     msvcprtd:MSVCP120D.dll
 0002:00000110       __imp_?xsputn@?$basic_streambuf@_WU?$char_traits@_W@std@@@std@@MAE_JPB_W_J@Z 00417110     msvcprtd:MSVCP120D.dll
 0002:00000114       __imp_?_BADOFF@std@@3_JB   00417114     msvcprtd:MSVCP120D.dll
 0002:00000118       __imp_?id@?$codecvt@_WDH@std@@2V0locale@2@A 00417118     msvcprtd:MSVCP120D.dll
 0002:0000011c       __imp_?id@?$ctype@_W@std@@2V0locale@2@A 0041711c     msvcprtd:MSVCP120D.dll
 0002:00000120       __imp_??2@YAPAXIABU_DebugHeapTag_t@std@@PADH@Z 00417120     msvcprtd:MSVCP120D.dll
 0002:00000124       __imp_??3@YAXPAXABU_DebugHeapTag_t@std@@PADH@Z 00417124     msvcprtd:MSVCP120D.dll
 0002:00000128       __imp_?_DebugHeapTag_func@std@@YAABU_DebugHeapTag_t@1@XZ 00417128     msvcprtd:MSVCP120D.dll
 0002:0000012c       __imp_??Bid@locale@std@@QAEIXZ 0041712c     msvcprtd:MSVCP120D.dll
 0002:00000130       __imp_??1_Lockit@std@@QAE@XZ 00417130     msvcprtd:MSVCP120D.dll
 0002:00000134       __imp_??0_Lockit@std@@QAE@H@Z 00417134     msvcprtd:MSVCP120D.dll
 0002:00000138       __imp_?_Winerror_map@std@@YAPBDH@Z 00417138     msvcprtd:MSVCP120D.dll
 0002:0000013c       __imp_?_Syserror_map@std@@YAPBDH@Z 0041713c     msvcprtd:MSVCP120D.dll
 0002:00000140       __imp_??0id@locale@std@@QAE@I@Z 00417140     msvcprtd:MSVCP120D.dll
 0002:00000144       __imp_?_Xout_of_range@std@@YAXPBD@Z 00417144     msvcprtd:MSVCP120D.dll
 0002:00000148       __imp_?_Xlength_error@std@@YAXPBD@Z 00417148     msvcprtd:MSVCP120D.dll
 0002:0000014c       __imp_?_Xbad_alloc@std@@YAXXZ 0041714c     msvcprtd:MSVCP120D.dll
 0002:00000150       __imp_?_Orphan_all@_Container_base0@std@@QAEXXZ 00417150     msvcprtd:MSVCP120D.dll
 0002:00000154       __imp_?pptr@?$basic_streambuf@_WU?$char_traits@_W@std@@@std@@IBEPA_WXZ 00417154     msvcprtd:MSVCP120D.dll
 0002:00000158       \177MSVCP120D_NULL_THUNK_DATA 00417158     msvcprtd:MSVCP120D.dll
 0002:0000015c       __imp___controlfp_s        0041715c     MSVCRTD:MSVCR120D.dll
 0002:00000160       __imp___invoke_watson      00417160     MSVCRTD:MSVCR120D.dll
 0002:00000164       __imp___purecall           00417164     MSVCRTD:MSVCR120D.dll
 0002:00000168       __imp_??2@YAPAXI@Z         00417168     MSVCRTD:MSVCR120D.dll
 0002:0000016c       __imp_??3@YAXPAX@Z         0041716c     MSVCRTD:MSVCR120D.dll
 0002:00000170       __imp__memmove             00417170     MSVCRTD:MSVCR120D.dll
 0002:00000174       __imp___CxxThrowException@8 00417174     MSVCRTD:MSVCR120D.dll
 0002:00000178       __imp____CxxFrameHandler3  00417178     MSVCRTD:MSVCR120D.dll
 0002:0000017c       __imp__memcpy              0041717c     MSVCRTD:MSVCR120D.dll
 0002:00000180       __imp__memset              00417180     MSVCRTD:MSVCR120D.dll
 0002:00000184       __imp__vsprintf_s          00417184     MSVCRTD:MSVCR120D.dll
 0002:00000188       __imp___CrtSetDbgFlag      00417188     MSVCRTD:MSVCR120D.dll
 0002:0000018c       __imp__free                0041718c     MSVCRTD:MSVCR120D.dll
 0002:00000190       __imp__memcpy_s            00417190     MSVCRTD:MSVCR120D.dll
 0002:00000194       __imp__wcscat_s            00417194     MSVCRTD:MSVCR120D.dll
 0002:00000198       __imp__wcscpy_s            00417198     MSVCRTD:MSVCR120D.dll
 0002:0000019c       __imp__wcsncpy             0041719c     MSVCRTD:MSVCR120D.dll
 0002:000001a0       __imp____crtSetUnhandledExceptionFilter 004171a0     MSVCRTD:MSVCR120D.dll
 0002:000001a4       __imp__fclose              004171a4     MSVCRTD:MSVCR120D.dll
 0002:000001a8       __imp__fflush              004171a8     MSVCRTD:MSVCR120D.dll
 0002:000001ac       __imp__fgetc               004171ac     MSVCRTD:MSVCR120D.dll
 0002:000001b0       __imp__fgetpos             004171b0     MSVCRTD:MSVCR120D.dll
 0002:000001b4       __imp__fsetpos             004171b4     MSVCRTD:MSVCR120D.dll
 0002:000001b8       __imp___fseeki64           004171b8     MSVCRTD:MSVCR120D.dll
 0002:000001bc       __imp__fwrite              004171bc     MSVCRTD:MSVCR120D.dll
 0002:000001c0       __imp__setvbuf             004171c0     MSVCRTD:MSVCR120D.dll
 0002:000001c4       __imp__ungetc              004171c4     MSVCRTD:MSVCR120D.dll
 0002:000001c8       __imp__fgetwc              004171c8     MSVCRTD:MSVCR120D.dll
 0002:000001cc       __imp__fputwc              004171cc     MSVCRTD:MSVCR120D.dll
 0002:000001d0       __imp__ungetwc             004171d0     MSVCRTD:MSVCR120D.dll
 0002:000001d4       __imp___lock_file          004171d4     MSVCRTD:MSVCR120D.dll
 0002:000001d8       __imp___unlock_file        004171d8     MSVCRTD:MSVCR120D.dll
 0002:000001dc       __imp_??0bad_cast@std@@QAE@PBD@Z 004171dc     MSVCRTD:MSVCR120D.dll
 0002:000001e0       __imp_??0bad_cast@std@@QAE@ABV01@@Z 004171e0     MSVCRTD:MSVCR120D.dll
 0002:000001e4       __imp_??0exception@std@@QAE@ABV01@@Z 004171e4     MSVCRTD:MSVCR120D.dll
 0002:000001e8       __imp_??1bad_cast@std@@UAE@XZ 004171e8     MSVCRTD:MSVCR120D.dll
 0002:000001ec       __imp__memcmp              004171ec     MSVCRTD:MSVCR120D.dll
 0002:000001f0       __imp____libm_sse2_atan2   004171f0     MSVCRTD:MSVCR120D.dll
 0002:000001f4       __imp___lock               004171f4     MSVCRTD:MSVCR120D.dll
 0002:000001f8       __imp___unlock             004171f8     MSVCRTD:MSVCR120D.dll
 0002:000001fc       __imp___CrtDbgReportW      004171fc     MSVCRTD:MSVCR120D.dll
 0002:00000200       __imp___calloc_dbg         00417200     MSVCRTD:MSVCR120D.dll
 0002:00000204       __imp____dllonexit         00417204     MSVCRTD:MSVCR120D.dll
 0002:00000208       __imp___onexit             00417208     MSVCRTD:MSVCR120D.dll
 0002:0000020c       __imp_??1type_info@@UAE@XZ 0041720c     MSVCRTD:MSVCR120D.dll
 0002:00000210       __imp___XcptFilter         00417210     MSVCRTD:MSVCR120D.dll
 0002:00000214       __imp____crtGetShowWindowMode 00417214     MSVCRTD:MSVCR120D.dll
 0002:00000218       __imp___amsg_exit          00417218     MSVCRTD:MSVCR120D.dll
 0002:0000021c       __imp____wgetmainargs      0041721c     MSVCRTD:MSVCR120D.dll
 0002:00000220       __imp____set_app_type      00417220     MSVCRTD:MSVCR120D.dll
 0002:00000224       __imp___CrtSetCheckCount   00417224     MSVCRTD:MSVCR120D.dll
 0002:00000228       __imp__exit                00417228     MSVCRTD:MSVCR120D.dll
 0002:0000022c       __imp___exit               0041722c     MSVCRTD:MSVCR120D.dll
 0002:00000230       __imp___cexit              00417230     MSVCRTD:MSVCR120D.dll
 0002:00000234       __imp___configthreadlocale 00417234     MSVCRTD:MSVCR120D.dll
 0002:00000238       __imp____setusermatherr    00417238     MSVCRTD:MSVCR120D.dll
 0002:0000023c       __imp___initterm_e         0041723c     MSVCRTD:MSVCR120D.dll
 0002:00000240       __imp___initterm           00417240     MSVCRTD:MSVCR120D.dll
 0002:00000244       __imp___wcmdln             00417244     MSVCRTD:MSVCR120D.dll
 0002:00000248       __imp___fmode              00417248     MSVCRTD:MSVCR120D.dll
 0002:0000024c       __imp___commode            0041724c     MSVCRTD:MSVCR120D.dll
 0002:00000250       __imp___except1            00417250     MSVCRTD:MSVCR120D.dll
 0002:00000254       __imp___except_handler4_common 00417254     MSVCRTD:MSVCR120D.dll
 0002:00000258       __imp___crt_debugger_hook  00417258     MSVCRTD:MSVCR120D.dll
 0002:0000025c       __imp____crtUnhandledException 0041725c     MSVCRTD:MSVCR120D.dll
 0002:00000260       __imp____crtTerminateProcess 00417260     MSVCRTD:MSVCR120D.dll
 0002:00000264       __imp_?terminate@@YAXXZ    00417264     MSVCRTD:MSVCR120D.dll
 0002:00000268       __imp__wcsrchr             00417268     MSVCRTD:MSVCR120D.dll
 0002:0000026c       \177MSVCR120D_NULL_THUNK_DATA 0041726c     MSVCRTD:MSVCR120D.dll
 0002:00000270       __imp__MessageBoxW@16      00417270     user32:USER32.dll
 0002:00000274       __imp__ShowWindow@8        00417274     user32:USER32.dll
 0002:00000278       __imp__DestroyWindow@4     00417278     user32:USER32.dll
 0002:0000027c       __imp__CreateWindowExW@48  0041727c     user32:USER32.dll
 0002:00000280       __imp__RegisterClassExW@4  00417280     user32:USER32.dll
 0002:00000284       __imp__PostQuitMessage@4   00417284     user32:USER32.dll
 0002:00000288       __imp__DefWindowProcW@16   00417288     user32:USER32.dll
 0002:0000028c       __imp__PeekMessageW@20     0041728c     user32:USER32.dll
 0002:00000290       __imp__DispatchMessageW@4  00417290     user32:USER32.dll
 0002:00000294       __imp__TranslateMessage@4  00417294     user32:USER32.dll
 0002:00000298       __imp__PtInRect@12         00417298     user32:USER32.dll
 0002:0000029c       __imp__SetRect@20          0041729c     user32:USER32.dll
 0002:000002a0       __imp__GetCursorPos@4      004172a0     user32:USER32.dll
 0002:000002a4       __imp__GetClientRect@8     004172a4     user32:USER32.dll
 0002:000002a8       __imp__GetForegroundWindow@0 004172a8     user32:USER32.dll
 0002:000002ac       __imp__MessageBoxA@16      004172ac     user32:USER32.dll
 0002:000002b0       __imp__MoveWindow@24       004172b0     user32:USER32.dll
 0002:000002b4       __imp__IsIconic@4          004172b4     user32:USER32.dll
 0002:000002b8       __imp__IsZoomed@4          004172b8     user32:USER32.dll
 0002:000002bc       __imp__UpdateWindow@4      004172bc     user32:USER32.dll
 0002:000002c0       __imp__GetWindowRect@8     004172c0     user32:USER32.dll
 0002:000002c4       __imp__AdjustWindowRect@12 004172c4     user32:USER32.dll
 0002:000002c8       __imp__SetWindowLongW@12   004172c8     user32:USER32.dll
 0002:000002cc       __imp__GetDesktopWindow@0  004172cc     user32:USER32.dll
 0002:000002d0       __imp__MonitorFromWindow@8 004172d0     user32:USER32.dll
 0002:000002d4       __imp__GetMonitorInfoW@8   004172d4     user32:USER32.dll
 0002:000002d8       __imp__GetKeyState@4       004172d8     user32:USER32.dll
 0002:000002dc       __imp__SetCapture@4        004172dc     user32:USER32.dll
 0002:000002e0       __imp__ReleaseCapture@0    004172e0     user32:USER32.dll
 0002:000002e4       \177USER32_NULL_THUNK_DATA 004172e4     user32:USER32.dll
 0002:000002e8       __imp__XInputGetState@8    004172e8     xinput:XINPUT1_3.dll
 0002:000002ec       \177XINPUT1_3_NULL_THUNK_DATA 004172ec     xinput:XINPUT1_3.dll
 0002:000002f0       __imp__D3D11CreateDeviceAndSwapChain@48 004172f0     d3d11:d3d11.dll
 0002:000002f4       \177d3d11_NULL_THUNK_DATA  004172f4     d3d11:d3d11.dll
 0002:000002f8       __imp__D3DX11CompileFromFileW@44 004172f8     d3dx11:d3dx11_43.dll
 0002:000002fc       __imp__D3DX11GetImageInfoFromFileW@16 004172fc     d3dx11:d3dx11_43.dll
 0002:00000300       __imp__D3DX11CreateShaderResourceViewFromFileW@24 00417300     d3dx11:d3dx11_43.dll
 0002:00000304       \177d3dx11_43_NULL_THUNK_DATA 00417304     d3dx11:d3dx11_43.dll
 0002:00000308       __imp__D3DXMatrixTranslation@16 00417308     d3dx9:d3dx9_43.dll
 0002:0000030c       __imp__D3DXMatrixRotationQuaternion@8 0041730c     d3dx9:d3dx9_43.dll
 0002:00000310       __imp__D3DXMatrixRotationYawPitchRoll@16 00417310     d3dx9:d3dx9_43.dll
 0002:00000314       __imp__D3DXMatrixLookAtLH@16 00417314     d3dx9:d3dx9_43.dll
 0002:00000318       __imp__D3DXQuaternionMultiply@12 00417318     d3dx9:d3dx9_43.dll
 0002:0000031c       __imp__D3DXMatrixPerspectiveFovLH@20 0041731c     d3dx9:d3dx9_43.dll
 0002:00000320       __imp__D3DXVec3Normalize@8 00417320     d3dx9:d3dx9_43.dll
 0002:00000324       __imp__D3DXMatrixScaling@16 00417324     d3dx9:d3dx9_43.dll
 0002:00000328       __imp__D3DXMatrixInverse@12 00417328     d3dx9:d3dx9_43.dll
 0002:0000032c       __imp__D3DXMatrixMultiply@12 0041732c     d3dx9:d3dx9_43.dll
 0002:00000330       __imp__D3DXMatrixTranspose@8 00417330     d3dx9:d3dx9_43.dll
 0002:00000334       __imp__D3DXQuaternionRotationMatrix@8 00417334     d3dx9:d3dx9_43.dll
 0002:00000338       __imp__D3DXVec3TransformCoord@12 00417338     d3dx9:d3dx9_43.dll
 0002:0000033c       \177d3dx9_43_NULL_THUNK_DATA 0041733c     d3dx9:d3dx9_43.dll
 0002:00000340       __imp_?g_vld@@3VVisualLeakDetector@@A 00417340     vld:vld_x86.dll
 0002:00000344       \177vld_x86_NULL_THUNK_DATA 00417344     vld:vld_x86.dll
 0002:00000348       ___xc_a                    00417348     MSVCRTD:cinitexe.obj
 0002:00000394       ___xc_z                    00417394     MSVCRTD:cinitexe.obj
 0002:00000398       ___xi_a                    00417398     MSVCRTD:cinitexe.obj
 0002:000003a8       ___xi_z                    004173a8     MSVCRTD:cinitexe.obj
 0002:000007cc       ??_7IVisualController@@6B@ 004177cc     DeferredRenderer.obj
 0002:000007f4       ??_7error_category@std@@6B@ 004177f4     DeferredRenderer.obj
 0002:00000810       ??_7_Generic_error_category@std@@6B@ 00417810     DeferredRenderer.obj
 0002:00000828       ??_C@_07DCLBNMLN@generic?$AA@ 00417828     DeferredRenderer.obj
 0002:00000830       ??_C@_0O@BFJCFAAK@unknown?5error?$AA@ 00417830     DeferredRenderer.obj
 0002:00000844       ??_7_Iostream_error_category@std@@6B@ 00417844     DeferredRenderer.obj
 0002:0000085c       ??_C@_08LLGCOLLL@iostream?$AA@ 0041785c     DeferredRenderer.obj
 0002:00000868       ??_C@_0BG@PADBLCHM@iostream?5stream?5error?$AA@ 00417868     DeferredRenderer.obj
 0002:00000884       ??_7_System_error_category@std@@6B@ 00417884     DeferredRenderer.obj
 0002:0000089c       ??_C@_06FHFOAHML@system?$AA@ 0041789c     DeferredRenderer.obj
 0002:000008a8       ??_7DeferredRendererController@@6B@ 004178a8     DeferredRenderer.obj
 0002:000008cc       ??_C@_0BA@JFNIOLAK@string?5too?5long?$AA@ 004178cc     DeferredRenderer.obj
 0002:000008dc       ??_C@_0BI@CFPLBAOH@invalid?5string?5position?$AA@ 004178dc     DeferredRenderer.obj
 0002:000008f4       ??_C@_0BD@OLBABOEK@vector?$DMT?$DO?5too?5long?$AA@ 004178f4     DeferredRenderer.obj
 0002:00000908       __real@00000000            00417908     DeferredRenderer.obj
 0002:0000090c       __real@3dcccccd            0041790c     DeferredRenderer.obj
 0002:00000910       __real@3f800000            00417910     DeferredRenderer.obj
 0002:00000914       __real@7f7fffff            00417914     DeferredRenderer.obj
 0002:00000a14       ??_7DeviceManager@@6B@     00417a14     DeferredShadingMSAA.obj
 0002:00000a50       ??_C@_11LOCGONAA@?$AA?$AA@ 00417a50     DeferredShadingMSAA.obj
 0002:00000a58       ??_7AntTweakBarVisualController@@6B@ 00417a58     DeferredShadingMSAA.obj
 0002:00000a7c       ??_C@_0BK@CDCBOAEI@Average?5Frame?5Time?3?5?$CFf?5ms?$AA@ 00417a7c     DeferredShadingMSAA.obj
 0002:00000a98       ??_C@_07PMLJNGND@barMain?$AA@ 00417a98     DeferredShadingMSAA.obj
 0002:00000aa0       ??_C@_0GA@PJPHMECI@barMain?5label?$DN?8Settings?8?5color?$DN?8@ 00417aa0     DeferredShadingMSAA.obj
 0002:00000b00       ??_C@_0O@JOAECCHI@Coverage?5Mask?$AA@ 00417b00     DeferredShadingMSAA.obj
 0002:00000b10       ??_C@_0BF@KJGDMABD@Sample?5Discontinuity?$AA@ 00417b10     DeferredShadingMSAA.obj
 0002:00000b28       ??_C@_0P@JPCGLGCA@Excellent?5Enum?$AA@ 00417b28     DeferredShadingMSAA.obj
 0002:00000b38       ??_C@_0CD@ECIIOBNG@keyIncr?$DNg?5keyDecr?$DNG?5group?$DNSettin@ 00417b38     DeferredShadingMSAA.obj
 0002:00000b5c       ??_C@_0CB@IECENGFI@Complex?5Pixel?5Detection?5Approach@ 00417b5c     DeferredShadingMSAA.obj
 0002:00000b80       ??_C@_0BD@NBCECMN@Lambertion?5Diffuse?$AA@ 00417b80     DeferredShadingMSAA.obj
 0002:00000b94       ??_C@_0BD@JJNIHLHC@Oren?5Nayar?5Diffuse?$AA@ 00417b94     DeferredShadingMSAA.obj
 0002:00000ba8       ??_C@_0BB@GCLLLPKM@Excellent?5Enum?52?$AA@ 00417ba8     DeferredShadingMSAA.obj
 0002:00000bbc       ??_C@_0CD@LJOLHNFO@keyIncr?$DNb?5keyDecr?$DNB?5group?$DNSettin@ 00417bbc     DeferredShadingMSAA.obj
 0002:00000be0       ??_C@_05CKANHNLN@BRDFs?$AA@ 00417be0     DeferredShadingMSAA.obj
 0002:00000be8       ??_C@_0P@FBEGGJOC@group?$DNSettings?$AA@ 00417be8     DeferredShadingMSAA.obj
 0002:00000bf8       ??_C@_0CA@DCFDBEIP@Adaptively?5Shade?5Complex?5Pixels?$AA@ 00417bf8     DeferredShadingMSAA.obj
 0002:00000c18       ??_C@_0BE@ONPNMFDL@Mark?5Complex?5Pixels?$AA@ 00417c18     DeferredShadingMSAA.obj
 0002:00000c2c       ??_C@_0BM@JNOHANLH@Seperate?5Complex?5Pixel?5Pass?$AA@ 00417c2c     DeferredShadingMSAA.obj
 0002:00000c48       ??_C@_0BD@DIBCOFCL@Per?9Sample?5Shading?$AA@ 00417c48     DeferredShadingMSAA.obj
 0002:00000c60       __real@0000000000000000    00417c60     DeferredShadingMSAA.obj
 0002:00000c68       __real@3ba3d70a            00417c68     DeferredShadingMSAA.obj
 0002:00000c6c       __real@3f490fdb            00417c6c     DeferredShadingMSAA.obj
 0002:00000c70       __real@3fe0000000000000    00417c70     DeferredShadingMSAA.obj
 0002:00000c78       __real@408f400000000000    00417c78     DeferredShadingMSAA.obj
 0002:00000c80       __real@42c80000            00417c80     DeferredShadingMSAA.obj
 0002:00000c88       __real@bff0000000000000    00417c88     DeferredShadingMSAA.obj
 0002:00000c90       __real@c2e00000            00417c90     DeferredShadingMSAA.obj
 0002:00000ca0       __xmm@41f00000000000000000000000000000 00417ca0     DeferredShadingMSAA.obj
 0002:00000d70       ?layout_Position_Normal_Texture@ObjMeshDX@@2QBUD3D11_INPUT_ELEMENT_DESC@@B 00417d70     ObjMeshDX.obj
 0002:00000dd4       ?npos@?$basic_string@DU?$char_traits@D@std@@V?$allocator@D@2@@std@@2IB 00417dd4     ObjMeshDX.obj
 0002:00000ddc       ??_7?$basic_filebuf@_WU?$char_traits@_W@std@@@std@@6B@ 00417ddc     ObjMeshDX.obj
 0002:00000e1c       ??_7?$basic_ifstream@_WU?$char_traits@_W@std@@@std@@6B@ 00417e1c     ObjMeshDX.obj
 0002:00000e20       ??_8?$basic_ifstream@_WU?$char_traits@_W@std@@@std@@7B@ 00417e20     ObjMeshDX.obj
 0002:00000e28       ??_C@_08EPJLHIJG@bad?5cast?$AA@ 00417e28     ObjMeshDX.obj
 0002:00000e34       __real@3e4ccccd            00417e34     ObjMeshDX.obj
 0002:00000e38       __real@3f000000            00417e38     ObjMeshDX.obj
 0002:00000e3c       __real@3f4ccccd            00417e3c     ObjMeshDX.obj
 0002:00000e40       __real@ff7fffff            00417e40     ObjMeshDX.obj
 0002:00000e48       ??_7CBaseCamera@@6B@       00417e48     nvidiautilsDEBUG:Camera.obj
 0002:00000e68       ??_7CFirstPersonCamera@@6B@ 00417e68     nvidiautilsDEBUG:Camera.obj
 0002:00000e88       ??_7CModelViewerCamera@@6B@ 00417e88     nvidiautilsDEBUG:Camera.obj
 0002:00000ea4       __real@3c23d70a            00417ea4     nvidiautilsDEBUG:Camera.obj
 0002:00000ea8       __real@3ca3d70a            00417ea8     nvidiautilsDEBUG:Camera.obj
 0002:00000eac       __real@3e800000            00417eac     nvidiautilsDEBUG:Camera.obj
 0002:00000eb0       __real@3f666666            00417eb0     nvidiautilsDEBUG:Camera.obj
 0002:00000eb8       __real@3f9eb851eb851eb8    00417eb8     nvidiautilsDEBUG:Camera.obj
 0002:00000ec0       __real@3fc90fdb            00417ec0     nvidiautilsDEBUG:Camera.obj
 0002:00000ec4       __real@40000000            00417ec4     nvidiautilsDEBUG:Camera.obj
 0002:00000ec8       __real@40a00000            00417ec8     nvidiautilsDEBUG:Camera.obj
 0002:00000ecc       __real@41200000            00417ecc     nvidiautilsDEBUG:Camera.obj
 0002:00000ed0       __real@42f00000            00417ed0     nvidiautilsDEBUG:Camera.obj
 0002:00000ed4       __real@447a0000            00417ed4     nvidiautilsDEBUG:Camera.obj
 0002:00000ed8       __real@47000000            00417ed8     nvidiautilsDEBUG:Camera.obj
 0002:00000edc       __real@bf800000            00417edc     nvidiautilsDEBUG:Camera.obj
 0002:00000ee0       __real@bfc90fdb            00417ee0     nvidiautilsDEBUG:Camera.obj
 0002:00000ee4       __real@c0000000            00417ee4     nvidiautilsDEBUG:Camera.obj
 0002:00000ef0       __xmm@7fffffff7fffffff7fffffff7fffffff 00417ef0     nvidiautilsDEBUG:Camera.obj
 0002:00000f00       __xmm@80000000800000008000000080000000 00417f00     nvidiautilsDEBUG:Camera.obj
 0002:00000f5c       __GUID_6f15aaf2_d208_4e89_9ab4_489535d34f9c 00417f5c     nvidiautilsDEBUG:DeviceManager.obj
 0002:00000f6c       __GUID_7b7166ec_21c7_44ae_b21a_c9ae321ae369 00417f6c     nvidiautilsDEBUG:DeviceManager.obj
 0002:00000f7c       __GUID_54ec77fa_1377_44e6_8c32_88fd5f44c84c 00417f7c     nvidiautilsDEBUG:DeviceManager.obj
 0002:00000f8c       __GUID_2411e7e1_12ac_4ccf_bd14_9798e8534dc0 00417f8c     nvidiautilsDEBUG:DeviceManager.obj
 0002:00000f9c       ??_C@_0BB@MOGOBHAF@list?$DMT?$DO?5too?5long?$AA@ 00417f9c     nvidiautilsDEBUG:DeviceManager.obj
 0002:00000fb0       ??_C@_0CM@OKINAFCK@f?3?2dd?2vctools?2crt?2crtw32?2stdcpp?2@ 00417fb0     msvcprtd:locale0_implib.obj
 0002:00000fe0       ??_C@_1MC@KPMPFEII@?$AA?$CI?$AA_?$AA_?$AAo?$AAn?$AAe?$AAx?$AAi?$AAt?$AAb?$AAe?$AAg?$AAi?$AAn?$AA?5?$AA?$CB?$AA?$DN?$AA?5?$AAN?$AAU?$AAL?$AAL?$AA?5?$AA?$CG?$AA?$CG?$AA?5?$AA_?$AA_?$AAo?$AAn?$AAe?$AAx@ 00417fe0     MSVCRTD:atonexit.obj
 0002:000010a4       ??_C@_15GANGMFKL@?$AA?$CF?$AAs?$AA?$AA@ 004180a4     MSVCRTD:atonexit.obj
 0002:000010b0       ??_C@_1FK@IGIDCAPD@?$AAf?$AA?3?$AA?2?$AAd?$AAd?$AA?2?$AAv?$AAc?$AAt?$AAo?$AAo?$AAl?$AAs?$AA?2?$AAc?$AAr?$AAt?$AA?2?$AAc?$AAr?$AAt?$AAw?$AA3?$AA2?$AA?2?$AAd?$AAl?$AAl?$AAs?$AAt?$AAu?$AAf@ 004180b0     MSVCRTD:atonexit.obj
 0002:0000110c       ??_C@_0CN@LMJJPMEG@f?3?2dd?2vctools?2crt?2crtw32?2dllstuf@ 0041810c     MSVCRTD:atonexit.obj
 0002:00001140       ??_7type_info@@6B@         00418140     MSVCRTD:ti_inst.obj
 0002:00001148       ??_C@_1FA@DALEHHGL@?$AA_?$AA_?$AAn?$AAa?$AAt?$AAi?$AAv?$AAe?$AA_?$AAs?$AAt?$AAa?$AAr?$AAt?$AAu?$AAp?$AA_?$AAs?$AAt?$AAa?$AAt?$AAe?$AA?5?$AA?$DN?$AA?$DN?$AA?5?$AA_?$AA_?$AAi?$AAn?$AAi?$AAt@ 00418148     MSVCRTD:wcrtexew.obj
 0002:00001198       ??_C@_1FG@DKNDLLJO@?$AAf?$AA?3?$AA?2?$AAd?$AAd?$AA?2?$AAv?$AAc?$AAt?$AAo?$AAo?$AAl?$AAs?$AA?2?$AAc?$AAr?$AAt?$AA?2?$AAc?$AAr?$AAt?$AAw?$AA3?$AA2?$AA?2?$AAd?$AAl?$AAl?$AAs?$AAt?$AAu?$AAf@ 00418198     MSVCRTD:wcrtexew.obj
 0002:00001280       ??_C@_1FI@JJOJLGLE@?$AAf?$AA?3?$AA?2?$AAd?$AAd?$AA?2?$AAv?$AAc?$AAt?$AAo?$AAo?$AAl?$AAs?$AA?2?$AAc?$AAr?$AAt?$AA?2?$AAc?$AAr?$AAt?$AAw?$AA3?$AA2?$AA?2?$AAs?$AAt?$AAa?$AAr?$AAt?$AAu?$AAp@ 00418280     MSVCRTD:fp8.obj
 0002:000012d8       ??_C@_1CK@JMKHCBEI@?$AA_?$AAs?$AAe?$AAt?$AAd?$AAe?$AAf?$AAa?$AAu?$AAl?$AAt?$AAp?$AAr?$AAe?$AAc?$AAi?$AAs?$AAi?$AAo?$AAn?$AA?$AA@ 004182d8     MSVCRTD:fp8.obj
 0002:00001308       ??_C@_1GE@KOCFNGPB@?$AA_?$AAc?$AAo?$AAn?$AAt?$AAr?$AAo?$AAl?$AAf?$AAp?$AA_?$AAs?$AA?$CI?$AA?$CI?$AA?$CI?$AAv?$AAo?$AAi?$AAd?$AA?5?$AA?$CK?$AA?$CJ?$AA0?$AA?$CJ?$AA?0?$AA?5?$AA0?$AAx?$AA0?$AA0?$AA0?$AA1@ 00418308     MSVCRTD:fp8.obj
 0002:00001370       __load_config_used         00418370     MSVCRTD:loadcfg.obj
 0002:00001434       ??_R4IVisualController@@6B@ 00418434     DeferredRenderer.obj
 0002:00001448       ??_R3IVisualController@@8  00418448     DeferredRenderer.obj
 0002:00001458       ??_R2IVisualController@@8  00418458     DeferredRenderer.obj
 0002:00001460       ??_R1A@?0A@EA@IVisualController@@8 00418460     DeferredRenderer.obj
 0002:0000147c       ??_R4error_category@std@@6B@ 0041847c     DeferredRenderer.obj
 0002:00001490       ??_R3error_category@std@@8 00418490     DeferredRenderer.obj
 0002:000014a0       ??_R2error_category@std@@8 004184a0     DeferredRenderer.obj
 0002:000014a8       ??_R1A@?0A@EA@error_category@std@@8 004184a8     DeferredRenderer.obj
 0002:000014c4       ??_R4_Generic_error_category@std@@6B@ 004184c4     DeferredRenderer.obj
 0002:000014d8       ??_R3_Generic_error_category@std@@8 004184d8     DeferredRenderer.obj
 0002:000014e8       ??_R2_Generic_error_category@std@@8 004184e8     DeferredRenderer.obj
 0002:000014f4       ??_R1A@?0A@EA@_Generic_error_category@std@@8 004184f4     DeferredRenderer.obj
 0002:00001510       ??_R4_Iostream_error_category@std@@6B@ 00418510     DeferredRenderer.obj
 0002:00001524       ??_R3_Iostream_error_category@std@@8 00418524     DeferredRenderer.obj
 0002:00001534       ??_R2_Iostream_error_category@std@@8 00418534     DeferredRenderer.obj
 0002:00001544       ??_R1A@?0A@EA@_Iostream_error_category@std@@8 00418544     DeferredRenderer.obj
 0002:00001560       ??_R4_System_error_category@std@@6B@ 00418560     DeferredRenderer.obj
 0002:00001574       ??_R3_System_error_category@std@@8 00418574     DeferredRenderer.obj
 0002:00001584       ??_R2_System_error_category@std@@8 00418584     DeferredRenderer.obj
 0002:00001594       ??_R1A@?0A@EA@_System_error_category@std@@8 00418594     DeferredRenderer.obj
 0002:000015b0       ??_R4DeferredRendererController@@6B@ 004185b0     DeferredRenderer.obj
 0002:000015c4       ??_R3DeferredRendererController@@8 004185c4     DeferredRenderer.obj
 0002:000015d4       ??_R2DeferredRendererController@@8 004185d4     DeferredRenderer.obj
 0002:000015e0       ??_R1A@?0A@EA@DeferredRendererController@@8 004185e0     DeferredRenderer.obj
 0002:000015fc       ??_R4DeviceManager@@6B@    004185fc     DeferredShadingMSAA.obj
 0002:00001610       ??_R3DeviceManager@@8      00418610     DeferredShadingMSAA.obj
 0002:00001620       ??_R2DeviceManager@@8      00418620     DeferredShadingMSAA.obj
 0002:00001628       ??_R1A@?0A@EA@DeviceManager@@8 00418628     DeferredShadingMSAA.obj
 0002:00001644       ??_R4AntTweakBarVisualController@@6B@ 00418644     DeferredShadingMSAA.obj
 0002:00001658       ??_R3AntTweakBarVisualController@@8 00418658     DeferredShadingMSAA.obj
 0002:00001668       ??_R2AntTweakBarVisualController@@8 00418668     DeferredShadingMSAA.obj
 0002:00001674       ??_R1A@?0A@EA@AntTweakBarVisualController@@8 00418674     DeferredShadingMSAA.obj
 0002:00001690       ??_R4?$basic_filebuf@_WU?$char_traits@_W@std@@@std@@6B@ 00418690     ObjMeshDX.obj
 0002:000016a4       ??_R3?$basic_filebuf@_WU?$char_traits@_W@std@@@std@@8 004186a4     ObjMeshDX.obj
 0002:000016b4       ??_R2?$basic_filebuf@_WU?$char_traits@_W@std@@@std@@8 004186b4     ObjMeshDX.obj
 0002:000016c0       ??_R1A@?0A@EA@?$basic_filebuf@_WU?$char_traits@_W@std@@@std@@8 004186c0     ObjMeshDX.obj
 0002:000016dc       ??_R1A@?0A@EA@?$basic_streambuf@_WU?$char_traits@_W@std@@@std@@8 004186dc     ObjMeshDX.obj
 0002:000016f8       ??_R3?$basic_streambuf@_WU?$char_traits@_W@std@@@std@@8 004186f8     ObjMeshDX.obj
 0002:00001708       ??_R2?$basic_streambuf@_WU?$char_traits@_W@std@@@std@@8 00418708     ObjMeshDX.obj
 0002:00001710       ??_R4?$basic_ifstream@_WU?$char_traits@_W@std@@@std@@6B@ 00418710     ObjMeshDX.obj
 0002:00001724       ??_R3?$basic_ifstream@_WU?$char_traits@_W@std@@@std@@8 00418724     ObjMeshDX.obj
 0002:00001734       ??_R2?$basic_ifstream@_WU?$char_traits@_W@std@@@std@@8 00418734     ObjMeshDX.obj
 0002:0000174c       ??_R1A@?0A@EA@?$basic_ifstream@_WU?$char_traits@_W@std@@@std@@8 0041874c     ObjMeshDX.obj
 0002:00001768       ??_R1A@?0A@EA@?$basic_istream@_WU?$char_traits@_W@std@@@std@@8 00418768     ObjMeshDX.obj
 0002:00001784       ??_R3?$basic_istream@_WU?$char_traits@_W@std@@@std@@8 00418784     ObjMeshDX.obj
 0002:00001794       ??_R2?$basic_istream@_WU?$char_traits@_W@std@@@std@@8 00418794     ObjMeshDX.obj
 0002:000017a8       ??_R1A@A@3FA@?$basic_ios@_WU?$char_traits@_W@std@@@std@@8 004187a8     ObjMeshDX.obj
 0002:000017c4       ??_R3?$basic_ios@_WU?$char_traits@_W@std@@@std@@8 004187c4     ObjMeshDX.obj
 0002:000017d4       ??_R2?$basic_ios@_WU?$char_traits@_W@std@@@std@@8 004187d4     ObjMeshDX.obj
 0002:000017e4       ??_R1A@?0A@EA@?$basic_ios@_WU?$char_traits@_W@std@@@std@@8 004187e4     ObjMeshDX.obj
 0002:00001800       ??_R1A@?0A@EA@ios_base@std@@8 00418800     ObjMeshDX.obj
 0002:0000181c       ??_R3ios_base@std@@8       0041881c     ObjMeshDX.obj
 0002:0000182c       ??_R2ios_base@std@@8       0041882c     ObjMeshDX.obj
 0002:00001838       ??_R17?0A@EA@?$_Iosb@H@std@@8 00418838     ObjMeshDX.obj
 0002:00001854       ??_R3?$_Iosb@H@std@@8      00418854     ObjMeshDX.obj
 0002:00001864       ??_R2?$_Iosb@H@std@@8      00418864     ObjMeshDX.obj
 0002:0000186c       ??_R1A@?0A@EA@?$_Iosb@H@std@@8 0041886c     ObjMeshDX.obj
 0002:00001888       ??_R1A@A@3EA@ios_base@std@@8 00418888     ObjMeshDX.obj
 0002:000018a4       ??_R17A@3EA@?$_Iosb@H@std@@8 004188a4     ObjMeshDX.obj
 0002:000018c0       ??_R4CBaseCamera@@6B@      004188c0     nvidiautilsDEBUG:Camera.obj
 0002:000018d4       ??_R3CBaseCamera@@8        004188d4     nvidiautilsDEBUG:Camera.obj
 0002:000018e4       ??_R2CBaseCamera@@8        004188e4     nvidiautilsDEBUG:Camera.obj
 0002:000018ec       ??_R1A@?0A@EA@CBaseCamera@@8 004188ec     nvidiautilsDEBUG:Camera.obj
 0002:00001908       ??_R4CFirstPersonCamera@@6B@ 00418908     nvidiautilsDEBUG:Camera.obj
 0002:0000191c       ??_R3CFirstPersonCamera@@8 0041891c     nvidiautilsDEBUG:Camera.obj
 0002:0000192c       ??_R2CFirstPersonCamera@@8 0041892c     nvidiautilsDEBUG:Camera.obj
 0002:00001938       ??_R1A@?0A@EA@CFirstPersonCamera@@8 00418938     nvidiautilsDEBUG:Camera.obj
 0002:00001954       ??_R4CModelViewerCamera@@6B@ 00418954     nvidiautilsDEBUG:Camera.obj
 0002:00001968       ??_R3CModelViewerCamera@@8 00418968     nvidiautilsDEBUG:Camera.obj
 0002:00001978       ??_R2CModelViewerCamera@@8 00418978     nvidiautilsDEBUG:Camera.obj
 0002:00001984       ??_R1A@?0A@EA@CModelViewerCamera@@8 00418984     nvidiautilsDEBUG:Camera.obj
 0002:000019a0       ??_R4type_info@@6B@        004189a0     MSVCRTD:ti_inst.obj
 0002:000019b4       ??_R3type_info@@8          004189b4     MSVCRTD:ti_inst.obj
 0002:000019c4       ??_R2type_info@@8          004189c4     MSVCRTD:ti_inst.obj
 0002:000019cc       ??_R1A@?0A@EA@type_info@@8 004189cc     MSVCRTD:ti_inst.obj
 0002:000019f0       ___safe_se_handler_table   004189f0     <linker-defined>
 0002:00001aa0       ___rtc_iaa                 00418aa0     MSVCRTD:initsect.obj
 0002:00001aa4       ___rtc_izz                 00418aa4     MSVCRTD:initsect.obj
 0002:00001aa8       ___rtc_taa                 00418aa8     MSVCRTD:initsect.obj
 0002:00001aac       ___rtc_tzz                 00418aac     MSVCRTD:initsect.obj
 0002:00002654       __CT??_R0?AVexception@std@@@8??0exception@std@@QAE@ABV01@@Z12 00419654     ObjMeshDX.obj
 0002:00002670       __TI2?AVbad_cast@std@@     00419670     ObjMeshDX.obj
 0002:00002680       __CTA2?AVbad_cast@std@@    00419680     ObjMeshDX.obj
 0002:0000268c       __CT??_R0?AVbad_cast@std@@@8??0bad_cast@std@@QAE@ABV01@@Z12 0041968c     ObjMeshDX.obj
 0002:00002824       __IMPORT_DESCRIPTOR_d3dx11_43 00419824     d3dx11:d3dx11_43.dll
 0002:00002838       __IMPORT_DESCRIPTOR_d3dx9_43 00419838     d3dx9:d3dx9_43.dll
 0002:0000284c       __IMPORT_DESCRIPTOR_KERNEL32 0041984c     kernel32:KERNEL32.dll
 0002:00002860       __IMPORT_DESCRIPTOR_USER32 00419860     user32:USER32.dll
 0002:00002874       __IMPORT_DESCRIPTOR_MSVCP120D 00419874     msvcprtd:MSVCP120D.dll
 0002:00002888       __IMPORT_DESCRIPTOR_AntTweakBar 00419888     AntTweakBar:AntTweakBar.dll
 0002:0000289c       __IMPORT_DESCRIPTOR_MSVCR120D 0041989c     MSVCRTD:MSVCR120D.dll
 0002:000028b0       __IMPORT_DESCRIPTOR_vld_x86 004198b0     vld:vld_x86.dll
 0002:000028c4       __IMPORT_DESCRIPTOR_XINPUT1_3 004198c4     xinput:XINPUT1_3.dll
 0002:000028d8       __IMPORT_DESCRIPTOR_d3d11  004198d8     d3d11:d3d11.dll
 0002:000028ec       __NULL_IMPORT_DESCRIPTOR   004198ec     d3dx11:d3dx11_43.dll
 0003:0000000c       ?g_Approach@@3W4ComplexDetectApproach@@A 0041c00c     DeferredShadingMSAA.obj
 0003:00000014       ?s_bFirstTime@?1??DeviceCreated@AntTweakBarVisualController@@MAEJPAUID3D11Device@@@Z@4_NA 0041c014     DeferredShadingMSAA.obj
 0003:00000018       ___security_cookie         0041c018     MSVCRTD:gs_cookie.obj
 0003:0000001c       ___security_cookie_complement 0041c01c     MSVCRTD:gs_cookie.obj
 0003:00000020       ___defaultmatherr          0041c020     MSVCRTD:merr.obj
 0003:00000024       ___globallocalestatus      0041c024     MSVCRTD:xthdloc.obj
 0003:00000028       ___native_dllmain_reason   0041c028     MSVCRTD:natstart.obj
 0003:0000002c       ??_R0?AVIVisualController@@@8 0041c02c     DeferredRenderer.obj
 0003:0000004c       ??_R0?AVerror_category@std@@@8 0041c04c     DeferredRenderer.obj
 0003:00000070       ??_R0?AV_Generic_error_category@std@@@8 0041c070     DeferredRenderer.obj
 0003:0000009c       ??_R0?AV_Iostream_error_category@std@@@8 0041c09c     DeferredRenderer.obj
 0003:000000c8       ??_R0?AV_System_error_category@std@@@8 0041c0c8     DeferredRenderer.obj
 0003:000000f4       ??_R0?AVDeferredRendererController@@@8 0041c0f4     DeferredRenderer.obj
 0003:00000120       ??_R0?AVDeviceManager@@@8  0041c120     DeferredShadingMSAA.obj
 0003:0000013c       ??_R0?AVAntTweakBarVisualController@@@8 0041c13c     DeferredShadingMSAA.obj
 0003:00000168       ??_R0?AVexception@std@@@8  0041c168     ObjMeshDX.obj
 0003:00000184       ??_R0?AVbad_cast@std@@@8   0041c184     ObjMeshDX.obj
 0003:000001a0       ??_R0?AV?$basic_filebuf@_WU?$char_traits@_W@std@@@std@@@8 0041c1a0     ObjMeshDX.obj
 0003:000001dc       ??_R0?AV?$basic_streambuf@_WU?$char_traits@_W@std@@@std@@@8 0041c1dc     ObjMeshDX.obj
 0003:0000021c       ??_R0?AV?$basic_ifstream@_WU?$char_traits@_W@std@@@std@@@8 0041c21c     ObjMeshDX.obj
 0003:0000025c       ??_R0?AV?$basic_istream@_WU?$char_traits@_W@std@@@std@@@8 0041c25c     ObjMeshDX.obj
 0003:00000298       ??_R0?AV?$basic_ios@_WU?$char_traits@_W@std@@@std@@@8 0041c298     ObjMeshDX.obj
 0003:000002d0       ??_R0?AVios_base@std@@@8   0041c2d0     ObjMeshDX.obj
 0003:000002ec       ??_R0?AV?$_Iosb@H@std@@@8  0041c2ec     ObjMeshDX.obj
 0003:00000308       ??_R0?AVCBaseCamera@@@8    0041c308     nvidiautilsDEBUG:Camera.obj
 0003:00000324       ??_R0?AVCFirstPersonCamera@@@8 0041c324     nvidiautilsDEBUG:Camera.obj
 0003:00000348       ??_R0?AVCModelViewerCamera@@@8 0041c348     nvidiautilsDEBUG:Camera.obj
 0003:0000036c       ??_R0?AVtype_info@@@8      0041c36c     MSVCRTD:ti_inst.obj
 0003:0000038c       ?_Generic_object@?$_Error_objects@H@std@@2V_Generic_error_category@2@A 0041c38c     DeferredRenderer.obj
 0003:00000390       ?_Iostream_object@?$_Error_objects@H@std@@2V_Iostream_error_category@2@A 0041c390     DeferredRenderer.obj
 0003:00000394       ?_System_object@?$_Error_objects@H@std@@2V_System_error_category@2@A 0041c394     DeferredRenderer.obj
 0003:00000398       ?id@?$num_put@DV?$back_insert_iterator@V?$basic_string@DU?$char_traits@D@std@@V?$allocator@D@2@@std@@@std@@@std@@2V0locale@2@A 0041c398     DeferredRenderer.obj
 0003:0000039c       ?id@?$num_put@_WV?$back_insert_iterator@V?$basic_string@_WU?$char_traits@_W@std@@V?$allocator@_W@2@@std@@@std@@@std@@2V0locale@2@A 0041c39c     DeferredRenderer.obj
 0003:000003a0       ?g_DeviceManager@@3PAVDeviceManager@@A 0041c3a0     DeferredShadingMSAA.obj
 0003:000003a8       ?g_Camera@@3VCFirstPersonCamera@@A 0041c3a8     DeferredShadingMSAA.obj
 0003:00000574       ?_Stinit@?1??_Init@?$basic_filebuf@_WU?$char_traits@_W@std@@@std@@IAEXPAU_iobuf@@W4_Initfl@23@@Z@4HA 0041c574     ObjMeshDX.obj
 0003:00000578       ?_Psave@?$_Facetptr@V?$ctype@_W@std@@@std@@2PBVfacet@locale@2@B 0041c578     ObjMeshDX.obj
 0003:0000057c       ?_Psave@?$_Facetptr@V?$codecvt@_WDH@std@@@std@@2PBVfacet@locale@2@B 0041c57c     ObjMeshDX.obj
 0003:00000580       ?g_DeviceManagerInstance@@3PAVDeviceManager@@A 0041c580     nvidiautilsDEBUG:DeviceManager.obj
 0003:000008d0       __commode                  0041c8d0     MSVCRTD:xncommod.obj
 0003:000008d4       __dowildcard               0041c8d4     MSVCRTD:wildcard.obj
 0003:000008d8       __newmode                  0041c8d8     MSVCRTD:_newmode.obj
 0003:000008dc       __fmode                    0041c8dc     MSVCRTD:xtxtmode.obj
 0003:000008e0       ___native_startup_lock     0041c8e0     <common>
 0003:000008e4       ___native_startup_state    0041c8e4     <common>
 0003:000008e8       ___dyn_tls_init_callback   0041c8e8     <common>
 0003:000008ec       ___onexitend               0041c8ec     <common>
 0003:000008f0       ___onexitbegin             0041c8f0     <common>

 entry point at        0001:000142e0

 Static symbols

 0000:fffe2000       .debug$S                   00400000     msvcprtd:MSVCP120D.dll
 0000:fffe2000       .debug$S                   00400000     vld:vld_x86.dll
 0000:fffe2000       .debug$S                   00400000     MSVCRTD:MSVCR120D.dll
 0000:fffe2000       .debug$S                   00400000     MSVCRTD:MSVCR120D.dll
 0000:fffe2000       .debug$S                   00400000     MSVCRTD:MSVCR120D.dll
 0000:fffe2000       .debug$S                   00400000     MSVCRTD:MSVCR120D.dll
 0000:fffe2000       .debug$S                   00400000     MSVCRTD:MSVCR120D.dll
 0000:fffe2000       .debug$S                   00400000     MSVCRTD:MSVCR120D.dll
 0000:fffe2000       .debug$S                   00400000     MSVCRTD:MSVCR120D.dll
 0000:fffe2000       .debug$S                   00400000     MSVCRTD:MSVCR120D.dll
 0000:fffe2000       .debug$S                   00400000     MSVCRTD:MSVCR120D.dll
 0000:fffe2000       .debug$S                   00400000     MSVCRTD:MSVCR120D.dll
 0000:fffe2000       .debug$S                   00400000     MSVCRTD:MSVCR120D.dll
 0000:fffe2000       .debug$S                   00400000     MSVCRTD:MSVCR120D.dll
 0000:fffe2000       .debug$S                   00400000     MSVCRTD:MSVCR120D.dll
 0000:fffe2000       .debug$S                   00400000     MSVCRTD:MSVCR120D.dll
 0000:fffe2000       .debug$S                   00400000     MSVCRTD:MSVCR120D.dll
 0000:fffe2000       .debug$S                   00400000     MSVCRTD:MSVCR120D.dll
 0000:fffe2000       .debug$S                   00400000     MSVCRTD:MSVCR120D.dll
 0000:fffe2000       .debug$S                   00400000     MSVCRTD:MSVCR120D.dll
 0000:fffe2000       .debug$S                   00400000     MSVCRTD:MSVCR120D.dll
 0000:fffe2000       .debug$S                   00400000     MSVCRTD:MSVCR120D.dll
 0000:fffe2000       .debug$S                   00400000     MSVCRTD:MSVCR120D.dll
 0000:fffe2000       .debug$S                   00400000     MSVCRTD:MSVCR120D.dll
 0000:fffe2000       .debug$S                   00400000     kernel32:KERNEL32.dll
 0000:fffe2000       .debug$S                   00400000     kernel32:KERNEL32.dll
 0000:fffe2000       .debug$S                   00400000     kernel32:KERNEL32.dll
 0000:fffe2000       .debug$S                   00400000     d3dx9:d3dx9_43.dll
 0000:fffe2000       .debug$S                   00400000     d3dx9:d3dx9_43.dll
 0000:fffe2000       .debug$S                   00400000     d3dx9:d3dx9_43.dll
 0000:fffe2000       .debug$S                   00400000     d3dx9:d3dx9_43.dll
 0000:fffe2000       .debug$S                   00400000     d3dx9:d3dx9_43.dll
 0000:fffe2000       .debug$S                   00400000     d3dx9:d3dx9_43.dll
 0000:fffe2000       .debug$S                   00400000     d3dx9:d3dx9_43.dll
 0000:fffe2000       .debug$S                   00400000     d3dx9:d3dx9_43.dll
 0000:fffe2000       .debug$S                   00400000     d3dx9:d3dx9_43.dll
 0000:fffe2000       .debug$S                   00400000     d3dx9:d3dx9_43.dll
 0000:fffe2000       .debug$S                   00400000     d3dx9:d3dx9_43.dll
 0000:fffe2000       .debug$S                   00400000     d3dx9:d3dx9_43.dll
 0000:fffe2000       .debug$S                   00400000     d3dx9:d3dx9_43.dll
 0000:fffe2000       .debug$S                   00400000     kernel32:KERNEL32.dll
 0000:fffe2000       .debug$S                   00400000     d3d11:d3d11.dll
 0000:fffe2000       .debug$S                   00400000     kernel32:KERNEL32.dll
 0000:fffe2000       .debug$S                   00400000     d3dx11:d3dx11_43.dll
 0000:fffe2000       .debug$S                   00400000     d3dx11:d3dx11_43.dll
 0000:fffe2000       .debug$S                   00400000     d3dx11:d3dx11_43.dll
 0000:fffe2000       .debug$S                   00400000     kernel32:KERNEL32.dll
 0000:fffe2000       .debug$S                   00400000     xinput:XINPUT1_3.dll
 0000:fffe2000       .debug$S                   00400000     kernel32:KERNEL32.dll
 0000:fffe2000       .debug$S                   00400000     kernel32:KERNEL32.dll
 0000:fffe2000       .debug$S                   00400000     kernel32:KERNEL32.dll
 0000:fffe2000       .debug$S                   00400000     kernel32:KERNEL32.dll
 0000:fffe2000       .debug$S                   00400000     kernel32:KERNEL32.dll
 0000:fffe2000       .debug$S                   00400000     user32:USER32.dll
 0000:fffe2000       .debug$S                   00400000     user32:USER32.dll
 0000:fffe2000       .debug$S                   00400000     user32:USER32.dll
 0000:fffe2000       .debug$S                   00400000     user32:USER32.dll
 0000:fffe2000       .debug$S                   00400000     user32:USER32.dll
 0000:fffe2000       .debug$S                   00400000     user32:USER32.dll
 0000:fffe2000       .debug$S                   00400000     user32:USER32.dll
 0000:fffe2000       .debug$S                   00400000     user32:USER32.dll
 0000:fffe2000       .debug$S                   00400000     user32:USER32.dll
 0000:fffe2000       .debug$S                   00400000     user32:USER32.dll
 0000:fffe2000       .debug$S                   00400000     user32:USER32.dll
 0000:fffe2000       .debug$S                   00400000     user32:USER32.dll
 0000:fffe2000       .debug$S                   00400000     user32:USER32.dll
 0000:fffe2000       .debug$S                   00400000     user32:USER32.dll
 0000:fffe2000       .debug$S                   00400000     user32:USER32.dll
 0000:fffe2000       .debug$S                   00400000     user32:USER32.dll
 0000:fffe2000       .debug$S                   00400000     user32:USER32.dll
 0000:fffe2000       .debug$S                   00400000     user32:USER32.dll
 0000:fffe2000       .debug$S                   00400000     user32:USER32.dll
 0000:fffe2000       .debug$S                   00400000     user32:USER32.dll
 0000:fffe2000       .debug$S                   00400000     user32:USER32.dll
 0000:fffe2000       .debug$S                   00400000     user32:USER32.dll
 0000:fffe2000       .debug$S                   00400000     user32:USER32.dll
 0000:fffe2000       .debug$S                   00400000     user32:USER32.dll
 0000:fffe2000       .debug$S                   00400000     user32:USER32.dll
 0000:fffe2000       .debug$S                   00400000     user32:USER32.dll
 0000:fffe2000       .debug$S                   00400000     user32:USER32.dll
 0000:fffe2000       .debug$S                   00400000     user32:USER32.dll
 0000:fffe2000       .debug$S                   00400000     user32:USER32.dll
 0000:fffe2000       .debug$S                   00400000     msvcprtd:MSVCP120D.dll
 0000:fffe2000       .debug$S                   00400000     msvcprtd:MSVCP120D.dll
 0000:fffe2000       .debug$S                   00400000     msvcprtd:MSVCP120D.dll
 0000:fffe2000       .debug$S                   00400000     msvcprtd:MSVCP120D.dll
 0000:fffe2000       .debug$S                   00400000     msvcprtd:MSVCP120D.dll
 0000:fffe2000       .debug$S                   00400000     msvcprtd:MSVCP120D.dll
 0000:fffe2000       .debug$S                   00400000     msvcprtd:MSVCP120D.dll
 0000:fffe2000       .debug$S                   00400000     msvcprtd:MSVCP120D.dll
 0000:fffe2000       .debug$S                   00400000     msvcprtd:MSVCP120D.dll
 0000:fffe2000       .debug$S                   00400000     msvcprtd:MSVCP120D.dll
 0000:fffe2000       .debug$S                   00400000     msvcprtd:MSVCP120D.dll
 0000:fffe2000       .debug$S                   00400000     msvcprtd:MSVCP120D.dll
 0000:fffe2000       .debug$S                   00400000     msvcprtd:MSVCP120D.dll
 0000:fffe2000       .debug$S                   00400000     msvcprtd:MSVCP120D.dll
 0000:fffe2000       .debug$S                   00400000     msvcprtd:MSVCP120D.dll
 0000:fffe2000       .debug$S                   00400000     msvcprtd:MSVCP120D.dll
 0000:fffe2000       .debug$S                   00400000     msvcprtd:MSVCP120D.dll
 0000:fffe2000       .debug$S                   00400000     msvcprtd:MSVCP120D.dll
 0000:fffe2000       .debug$S                   00400000     msvcprtd:MSVCP120D.dll
 0000:fffe2000       .debug$S                   00400000     msvcprtd:MSVCP120D.dll
 0000:fffe2000       .debug$S                   00400000     msvcprtd:MSVCP120D.dll
 0000:fffe2000       .debug$S                   00400000     msvcprtd:MSVCP120D.dll
 0000:fffe2000       .debug$S                   00400000     msvcprtd:MSVCP120D.dll
 0000:fffe2000       .debug$S                   00400000     msvcprtd:MSVCP120D.dll
 0000:fffe2000       .debug$S                   00400000     msvcprtd:MSVCP120D.dll
 0000:fffe2000       .debug$S                   00400000     msvcprtd:MSVCP120D.dll
 0000:fffe2000       .debug$S                   00400000     msvcprtd:MSVCP120D.dll
 0000:fffe2000       .debug$S                   00400000     msvcprtd:MSVCP120D.dll
 0000:fffe2000       .debug$S                   00400000     msvcprtd:MSVCP120D.dll
 0000:fffe2000       .debug$S                   00400000     msvcprtd:MSVCP120D.dll
 0000:fffe2000       .debug$S                   00400000     msvcprtd:MSVCP120D.dll
 0000:fffe2000       .debug$S                   00400000     msvcprtd:MSVCP120D.dll
 0000:fffe2000       .debug$S                   00400000     msvcprtd:MSVCP120D.dll
 0000:fffe2000       .debug$S                   00400000     msvcprtd:MSVCP120D.dll
 0000:fffe2000       .debug$S                   00400000     msvcprtd:MSVCP120D.dll
 0000:fffe2000       .debug$S                   00400000     msvcprtd:MSVCP120D.dll
 0000:fffe2000       .debug$S                   00400000     msvcprtd:MSVCP120D.dll
 0000:fffe2000       .debug$S                   00400000     msvcprtd:MSVCP120D.dll
 0000:fffe2000       .debug$S                   00400000     msvcprtd:MSVCP120D.dll
 0000:fffe2000       .debug$S                   00400000     msvcprtd:MSVCP120D.dll
 0000:fffe2000       .debug$S                   00400000     msvcprtd:MSVCP120D.dll
 0000:fffe2000       .debug$S                   00400000     msvcprtd:MSVCP120D.dll
 0000:fffe2000       .debug$S                   00400000     msvcprtd:MSVCP120D.dll
 0000:fffe2000       .debug$S                   00400000     msvcprtd:MSVCP120D.dll
 0000:fffe2000       .debug$S                   00400000     msvcprtd:MSVCP120D.dll
 0000:fffe2000       .debug$S                   00400000     msvcprtd:MSVCP120D.dll
 0000:fffe2000       .debug$S                   00400000     msvcprtd:MSVCP120D.dll
 0000:fffe2000       .debug$S                   00400000     msvcprtd:MSVCP120D.dll
 0000:fffe2000       .debug$S                   00400000     msvcprtd:MSVCP120D.dll
 0000:fffe2000       .debug$S                   00400000     msvcprtd:MSVCP120D.dll
 0000:fffe2000       .debug$S                   00400000     msvcprtd:MSVCP120D.dll
 0000:fffe2000       .debug$S                   00400000     msvcprtd:MSVCP120D.dll
 0000:fffe2000       .debug$S                   00400000     kernel32:KERNEL32.dll
 0000:fffe2000       .debug$S                   00400000     msvcprtd:MSVCP120D.dll
 0000:fffe2000       .debug$S                   00400000     msvcprtd:MSVCP120D.dll
 0000:fffe2000       .debug$S                   00400000     msvcprtd:MSVCP120D.dll
 0000:fffe2000       .debug$S                   00400000     msvcprtd:MSVCP120D.dll
 0000:fffe2000       .debug$S                   00400000     msvcprtd:MSVCP120D.dll
 0000:fffe2000       .debug$S                   00400000     msvcprtd:MSVCP120D.dll
 0000:fffe2000       .debug$S                   00400000     msvcprtd:MSVCP120D.dll
 0000:fffe2000       .debug$S                   00400000     AntTweakBar:AntTweakBar.dll
 0000:fffe2000       .debug$S                   00400000     AntTweakBar:AntTweakBar.dll
 0000:fffe2000       .debug$S                   00400000     AntTweakBar:AntTweakBar.dll
 0000:fffe2000       .debug$S                   00400000     AntTweakBar:AntTweakBar.dll
 0000:fffe2000       .debug$S                   00400000     MSVCRTD:MSVCR120D.dll
 0000:fffe2000       .debug$S                   00400000     MSVCRTD:MSVCR120D.dll
 0000:fffe2000       .debug$S                   00400000     MSVCRTD:MSVCR120D.dll
 0000:fffe2000       .debug$S                   00400000     MSVCRTD:MSVCR120D.dll
 0000:fffe2000       .debug$S                   00400000     MSVCRTD:MSVCR120D.dll
 0000:fffe2000       .debug$S                   00400000     MSVCRTD:MSVCR120D.dll
 0000:fffe2000       .debug$S                   00400000     MSVCRTD:MSVCR120D.dll
 0000:fffe2000       .debug$S                   00400000     MSVCRTD:MSVCR120D.dll
 0000:fffe2000       .debug$S                   00400000     MSVCRTD:MSVCR120D.dll
 0000:fffe2000       .debug$S                   00400000     MSVCRTD:MSVCR120D.dll
 0000:fffe2000       .debug$S                   00400000     MSVCRTD:MSVCR120D.dll
 0000:fffe2000       .debug$S                   00400000     MSVCRTD:MSVCR120D.dll
 0000:fffe2000       .debug$S                   00400000     MSVCRTD:MSVCR120D.dll
 0000:fffe2000       .debug$S                   00400000     MSVCRTD:MSVCR120D.dll
 0000:fffe2000       .debug$S                   00400000     MSVCRTD:MSVCR120D.dll
 0000:fffe2000       .debug$S                   00400000     MSVCRTD:MSVCR120D.dll
 0000:fffe2000       .debug$S                   00400000     MSVCRTD:MSVCR120D.dll
 0000:fffe2000       .debug$S                   00400000     MSVCRTD:MSVCR120D.dll
 0000:fffe2000       .debug$S                   00400000     MSVCRTD:MSVCR120D.dll
 0000:fffe2000       .debug$S                   00400000     MSVCRTD:MSVCR120D.dll
 0000:fffe2000       .debug$S                   00400000     MSVCRTD:MSVCR120D.dll
 0000:fffe2000       .debug$S                   00400000     MSVCRTD:MSVCR120D.dll
 0000:fffe2000       .debug$S                   00400000     MSVCRTD:MSVCR120D.dll
 0000:fffe2000       .debug$S                   00400000     MSVCRTD:MSVCR120D.dll
 0000:fffe2000       .debug$S                   00400000     MSVCRTD:MSVCR120D.dll
 0000:fffe2000       .debug$S                   00400000     MSVCRTD:MSVCR120D.dll
 0000:fffe2000       .debug$S                   00400000     MSVCRTD:MSVCR120D.dll
 0000:fffe2000       .debug$S                   00400000     MSVCRTD:MSVCR120D.dll
 0000:fffe2000       .debug$S                   00400000     MSVCRTD:MSVCR120D.dll
 0000:fffe2000       .debug$S                   00400000     MSVCRTD:MSVCR120D.dll
 0000:fffe2000       .debug$S                   00400000     MSVCRTD:MSVCR120D.dll
 0000:fffe2000       .debug$S                   00400000     MSVCRTD:MSVCR120D.dll
 0000:fffe2000       .debug$S                   00400000     MSVCRTD:MSVCR120D.dll
 0000:fffe2000       .debug$S                   00400000     MSVCRTD:MSVCR120D.dll
 0000:fffe2000       .debug$S                   00400000     MSVCRTD:MSVCR120D.dll
 0000:fffe2000       .debug$S                   00400000     MSVCRTD:MSVCR120D.dll
 0000:fffe2000       .debug$S                   00400000     MSVCRTD:MSVCR120D.dll
 0000:fffe2000       .debug$S                   00400000     MSVCRTD:MSVCR120D.dll
 0000:fffe2000       .debug$S                   00400000     MSVCRTD:MSVCR120D.dll
 0000:fffe2000       .debug$S                   00400000     MSVCRTD:MSVCR120D.dll
 0000:fffe2000       .debug$S                   00400000     MSVCRTD:MSVCR120D.dll
 0000:fffe2000       .debug$S                   00400000     MSVCRTD:MSVCR120D.dll
 0000:fffe2000       .debug$S                   00400000     MSVCRTD:MSVCR120D.dll
 0000:fffe2000       .debug$S                   00400000     MSVCRTD:MSVCR120D.dll
 0000:fffe2000       .debug$S                   00400000     MSVCRTD:MSVCR120D.dll
 0000:fffe2000       .debug$S                   00400000     MSVCRTD:MSVCR120D.dll
 0000:fffe2000       .debug$S                   00400000     MSVCRTD:MSVCR120D.dll
 0000:fffe2000       .debug$S                   00400000     AntTweakBar:AntTweakBar.dll
 0000:fffe2000       .debug$S                   00400000     AntTweakBar:AntTweakBar.dll
 0000:fffe2000       .debug$S                   00400000     AntTweakBar:AntTweakBar.dll
 0000:fffe2000       .debug$S                   00400000     AntTweakBar:AntTweakBar.dll
 0000:fffe2000       .debug$S                   00400000     AntTweakBar:AntTweakBar.dll
 0000:fffe2000       .debug$S                   00400000     AntTweakBar:AntTweakBar.dll
 0000:fffe2000       .debug$S                   00400000     AntTweakBar:AntTweakBar.dll
 0000:fffe2000       .debug$S                   00400000     AntTweakBar:AntTweakBar.dll
 0001:00000000       ??__E?_Generic_object@?$_Error_objects@H@std@@2V_Generic_error_category@2@A@@YAXXZ 00401000 f   DeferredRenderer.obj
 0001:00000020       ??__E?_Iostream_object@?$_Error_objects@H@std@@2V_Iostream_error_category@2@A@@YAXXZ 00401020 f   DeferredRenderer.obj
 0001:00000040       ??__E?_System_object@?$_Error_objects@H@std@@2V_System_error_category@2@A@@YAXXZ 00401040 f   DeferredRenderer.obj
 0001:00000060       ??__E?id@?$num_put@DV?$back_insert_iterator@V?$basic_string@DU?$char_traits@D@std@@V?$allocator@D@2@@std@@@std@@@std@@2V0locale@2@A@@YAXXZ 00401060 f   DeferredRenderer.obj
 0001:00000080       ??__E?id@?$num_put@_WV?$back_insert_iterator@V?$basic_string@_WU?$char_traits@_W@std@@V?$allocator@_W@2@@std@@@std@@@std@@2V0locale@2@A@@YAXXZ 00401080 f   DeferredRenderer.obj
 0001:000000a0       ??__Eallocator_arg@std@@YAXXZ 004010a0 f   DeferredRenderer.obj
 0001:000000b0       ??__Epiecewise_construct@std@@YAXXZ 004010b0 f   DeferredRenderer.obj
 0001:000000c0       ??__Eallocator_arg@std@@YAXXZ 004010c0 f   DeferredShadingMSAA.obj
 0001:000000d0       ??__Eg_Camera@@YAXXZ       004010d0 f   DeferredShadingMSAA.obj
 0001:000000e0       ??__Epiecewise_construct@std@@YAXXZ 004010e0 f   DeferredShadingMSAA.obj
 0001:000000f0       ??__Eallocator_arg@std@@YAXXZ 004010f0 f   ObjMeshDX.obj
 0001:00000100       ??__Epiecewise_construct@std@@YAXXZ 00401100 f   ObjMeshDX.obj
 0001:00000110       ??__Eallocator_arg@std@@YAXXZ 00401110 f   nvidiautilsDEBUG:DeviceManager.obj
 0001:00000120       ??__Epiecewise_construct@std@@YAXXZ 00401120 f   nvidiautilsDEBUG:DeviceManager.obj
 0001:00000130       ??__E_Fac_tidy_reg@std@@YAXXZ 00401130 f   msvcprtd:locale0_implib.obj
 0001:00000150       ??__Eallocator_arg@std@@YAXXZ 00401150 f   msvcprtd:locale0_implib.obj
 0001:00000160       ??__Epiecewise_construct@std@@YAXXZ 00401160 f   msvcprtd:locale0_implib.obj
 0001:0000251f       __catch$?_Copy@?$basic_string@DU?$char_traits@D@std@@V?$allocator@D@2@@std@@QAEXII@Z$0 0040351f f i DeferredRenderer.obj
 0001:00002555       __catch$?_Copy@?$basic_string@DU?$char_traits@D@std@@V?$allocator@D@2@@std@@QAEXII@Z$1 00403555 f i DeferredRenderer.obj
 0001:00003da0       __catch$?_Buynode0@?$_List_alloc@$0A@U?$_List_base_types@NV?$allocator@N@std@@@std@@@std@@QAEPAU?$_List_node@NPAX@2@PAU32@0@Z$0 00404da0 f i DeferredShadingMSAA.obj
 0001:00003ec0       __catch$?_Buynode0@?$_List_alloc@$0A@U?$_List_base_types@PAVIVisualController@@V?$allocator@PAVIVisualController@@@std@@@std@@@std@@QAEPAU?$_List_node@PAVIVisualController@@PAX@2@PAU32@0@Z$0 00404ec0 f i DeferredShadingMSAA.obj
 0001:00003fdf       __catch$?_Copy@?$basic_string@_WU?$char_traits@_W@std@@V?$allocator@_W@2@@std@@QAEXII@Z$0 00404fdf f i DeferredShadingMSAA.obj
 0001:00004015       __catch$?_Copy@?$basic_string@_WU?$char_traits@_W@std@@V?$allocator@_W@2@@std@@QAEXII@Z$1 00405015 f i DeferredShadingMSAA.obj
 0001:00007900       ??0<lambda_2d54256eee8e3ee442d75c3c10292f84>@@QAE@AAUMeshVertex@@AAV?$basic_ifstream@_WU?$char_traits@_W@std@@@std@@AAIAAV?$vector@UD3DXVECTOR3@@V?$allocator@UD3DXVECTOR3@@@std@@@3@2AAV?$vector@UD3DXVECTOR2@@V?$allocator@UD3DXVECTOR2@@@std@@@3@23PAVObjMeshDX@@@Z 00408900 f   ObjMeshDX.obj
 0001:00007960       ??R<lambda_2d54256eee8e3ee442d75c3c10292f84>@@QBEKXZ 00408960 f   ObjMeshDX.obj
 0001:00007ae0       ??0VertexFace@?3??ComputeVertexNormals@ObjMeshDX@@AAEXXZ@QAE@XZ 00408ae0 f   ObjMeshDX.obj
 0001:00007d18       __catch$??$?5_WU?$char_traits@_W@std@@@std@@YAAAV?$basic_istream@_WU?$char_traits@_W@std@@@0@AAV10@PA_W@Z$0 00408d18 f i ObjMeshDX.obj
 0001:00008541       __catch$??$_Uninit_def_fill_n@PAUD3DXVECTOR3@@IV?$allocator@UD3DXVECTOR3@@@std@@U1@@std@@YAXPAUD3DXVECTOR3@@IAAU?$_Wrap_alloc@V?$allocator@UD3DXVECTOR3@@@std@@@0@0U_Nonscalar_ptr_iterator_tag@0@@Z$0 00409541 f i ObjMeshDX.obj
 0001:00008601       __catch$??$_Uninit_def_fill_n@PAUVertexFace@?3??ComputeVertexNormals@ObjMeshDX@@AAEXXZ@IV?$allocator@UVertexFace@?3??ComputeVertexNormals@ObjMeshDX@@AAEXXZ@@std@@U1?3??23@AAEXXZ@@std@@YAXPAUVertexFace@?3??ComputeVertexNormals@ObjMeshDX@@AAEXXZ@IAAU?$_Wrap_alloc@V?$allocator@UVertexFace@?3??ComputeVertexNormals@ObjMeshDX@@AAEXXZ@@std@@@0@0U_Nonscalar_ptr_iterator_tag@0@@Z$0 00409601 f i ObjMeshDX.obj
 0001:000087a7       __catch$??$_Uninit_move@PAUD3DXVECTOR2@@PAU1@V?$allocator@UD3DXVECTOR2@@@std@@U1@@std@@YAPAUD3DXVECTOR2@@PAU1@00AAU?$_Wrap_alloc@V?$allocator@UD3DXVECTOR2@@@std@@@0@0U_Nonscalar_ptr_iterator_tag@0@@Z$0 004097a7 f i ObjMeshDX.obj
 0001:000088b7       __catch$??$_Uninit_move@PAUD3DXVECTOR3@@PAU1@V?$allocator@UD3DXVECTOR3@@@std@@U1@@std@@YAPAUD3DXVECTOR3@@PAU1@00AAU?$_Wrap_alloc@V?$allocator@UD3DXVECTOR3@@@std@@@0@0U_Nonscalar_ptr_iterator_tag@0@@Z$0 004098b7 f i ObjMeshDX.obj
 0001:000089c7       __catch$??$_Uninit_move@PAUMeshFace@@PAU1@V?$allocator@UMeshFace@@@std@@U1@@std@@YAPAUMeshFace@@PAU1@00AAU?$_Wrap_alloc@V?$allocator@UMeshFace@@@std@@@0@0U_Nonscalar_ptr_iterator_tag@0@@Z$0 004099c7 f i ObjMeshDX.obj
 0001:00008ad7       __catch$??$_Uninit_move@PAUMeshVertex@@PAU1@V?$allocator@UMeshVertex@@@std@@U1@@std@@YAPAUMeshVertex@@PAU1@00AAU?$_Wrap_alloc@V?$allocator@UMeshVertex@@@std@@@0@0U_Nonscalar_ptr_iterator_tag@0@@Z$0 00409ad7 f i ObjMeshDX.obj
 0001:00008be7       __catch$??$_Uninit_move@PAUVertexFace@?3??ComputeVertexNormals@ObjMeshDX@@AAEXXZ@PAU1?3??23@AAEXXZ@V?$allocator@UVertexFace@?3??ComputeVertexNormals@ObjMeshDX@@AAEXXZ@@std@@U1?3??23@AAEXXZ@@std@@YAPAUVertexFace@?3??ComputeVertexNormals@ObjMeshDX@@AAEXXZ@PAU1?3??23@AAEXXZ@00AAU?$_Wrap_alloc@V?$allocator@UVertexFace@?3??ComputeVertexNormals@ObjMeshDX@@AAEXXZ@@std@@@0@0U_Nonscalar_ptr_iterator_tag@0@@Z$0 00409be7 f i ObjMeshDX.obj
 0001:00009b18       __catch$??0?$vector@HV?$allocator@H@std@@@std@@QAE@ABV01@@Z$0 0040ab18 f i ObjMeshDX.obj
 0001:0000aedb       __catch$?_Reallocate@?$vector@PAUCacheEntry@@V?$allocator@PAUCacheEntry@@@std@@@std@@IAEXI@Z$0 0040bedb f i ObjMeshDX.obj
 0001:0000aedb       __catch$?_Reallocate@?$vector@PAUMaterial@@V?$allocator@PAUMaterial@@@std@@@std@@IAEXI@Z$0 0040bedb f i ObjMeshDX.obj
 0001:0000aedb       __catch$?_Reallocate@?$vector@PAVObjMeshDX@@V?$allocator@PAVObjMeshDX@@@std@@@std@@IAEXI@Z$0 0040bedb f i ObjMeshDX.obj
 0001:0000aedb       __catch$?_Reallocate@?$vector@KV?$allocator@K@std@@@std@@IAEXI@Z$0 0040bedb f i ObjMeshDX.obj
 0001:0000aedb       __catch$?_Reallocate@?$vector@HV?$allocator@H@std@@@std@@IAEXI@Z$0 0040bedb f i ObjMeshDX.obj
 0001:0000b01b       __catch$?_Reallocate@?$vector@UD3DXVECTOR2@@V?$allocator@UD3DXVECTOR2@@@std@@@std@@IAEXI@Z$0 0040c01b f i ObjMeshDX.obj
 0001:0000b15b       __catch$?_Reallocate@?$vector@UD3DXVECTOR3@@V?$allocator@UD3DXVECTOR3@@@std@@@std@@IAEXI@Z$0 0040c15b f i ObjMeshDX.obj
 0001:0000b29b       __catch$?_Reallocate@?$vector@UMeshFace@@V?$allocator@UMeshFace@@@std@@@std@@IAEXI@Z$0 0040c29b f i ObjMeshDX.obj
 0001:0000b3db       __catch$?_Reallocate@?$vector@UMeshVertex@@V?$allocator@UMeshVertex@@@std@@@std@@IAEXI@Z$0 0040c3db f i ObjMeshDX.obj
 0001:0000b51b       __catch$?_Reallocate@?$vector@UVertexFace@?3??ComputeVertexNormals@ObjMeshDX@@AAEXXZ@V?$allocator@UVertexFace@?3??ComputeVertexNormals@ObjMeshDX@@AAEXXZ@@std@@@std@@IAEXI@Z$0 0040c51b f i ObjMeshDX.obj
 0001:0000d1e2       __catch$?resize@?$vector@UD3DXVECTOR3@@V?$allocator@UD3DXVECTOR3@@@std@@@std@@QAEXI@Z$0 0040e1e2 f i ObjMeshDX.obj
 0001:0000d2f2       __catch$?resize@?$vector@UVertexFace@?3??ComputeVertexNormals@ObjMeshDX@@AAEXXZ@V?$allocator@UVertexFace@?3??ComputeVertexNormals@ObjMeshDX@@AAEXXZ@@std@@@std@@QAEXI@Z$0 0040e2f2 f i ObjMeshDX.obj
 0001:0000e198       $LN19                      0040f198     nvidiautilsDEBUG:Camera.obj
 0001:0000e1b4       $LN18                      0040f1b4     nvidiautilsDEBUG:Camera.obj
 0001:0000ec4c       $LN29                      0040fc4c     nvidiautilsDEBUG:Camera.obj
 0001:0000ec60       $LN28                      0040fc60     nvidiautilsDEBUG:Camera.obj
 0001:0000efb4       $LN26                      0040ffb4     nvidiautilsDEBUG:Camera.obj
 0001:0000f008       $LN25                      00410008     nvidiautilsDEBUG:Camera.obj
 0001:00012ee1       __catch$??$_Buynode@ABN@?$_List_buy@NV?$allocator@N@std@@@std@@QAEPAU?$_List_node@NPAX@1@PAU21@0ABN@Z$0 00413ee1 f i nvidiautilsDEBUG:DeviceManager.obj
 0001:00012fc1       __catch$??$_Buynode@ABQAVIVisualController@@@?$_List_buy@PAVIVisualController@@V?$allocator@PAVIVisualController@@@std@@@std@@QAEPAU?$_List_node@PAVIVisualController@@PAX@1@PAU21@0ABQAVIVisualController@@@Z$0 00413fc1 f i nvidiautilsDEBUG:DeviceManager.obj
 0001:00013e90       _pre_c_init                00414e90 f   MSVCRTD:wcrtexew.obj
 0001:00013f20       _pre_cpp_init              00414f20 f   MSVCRTD:wcrtexew.obj
 0001:00013f90       ___tmainCRTStartup         00414f90 f   MSVCRTD:wcrtexew.obj
 0001:00014250       _check_managed_app         00415250 f   MSVCRTD:wcrtexew.obj
 0001:00014300       $$000000                   00415300     MSVCRTD:ftol3.obj
 0001:00014920       ?ArrayUnwindFilter@@YAHPAU_EXCEPTION_POINTERS@@@Z 00415920 f   MSVCRTD:ehvecdtr.obj
 0001:00014eb0       __unwindfunclet$??0DeferredRendererController@@QAE@PAVCFirstPersonCamera@@H@Z$0 00415eb0 f   DeferredRenderer.obj
 0001:00014ebb       __ehhandler$??0DeferredRendererController@@QAE@PAVCFirstPersonCamera@@H@Z 00415ebb f   DeferredRenderer.obj
 0001:00014ed6       __unwindfunclet$?DeviceCreated@DeferredRendererController@@UAEJPAUID3D11Device@@@Z$0 00415ed6 f   DeferredRenderer.obj
 0001:00014ee4       __ehhandler$?DeviceCreated@DeferredRendererController@@UAEJPAUID3D11Device@@@Z 00415ee4 f   DeferredRenderer.obj
 0001:00014f10       __ehhandler$?_Copy@?$basic_string@DU?$char_traits@D@std@@V?$allocator@D@2@@std@@QAEXII@Z 00415f10 f   DeferredRenderer.obj
 0001:00014f30       __unwindfunclet$?construct@?$allocator@UD3DXVECTOR3@@@std@@QAEXPAUD3DXVECTOR3@@@Z$0 00415f30 f   DeferredShadingMSAA.obj
 0001:00014f30       __unwindfunclet$??$construct@UMeshFace@@AAU1@@?$allocator@UMeshFace@@@std@@QAEXPAUMeshFace@@AAU2@@Z$0 00415f30 f   DeferredShadingMSAA.obj
 0001:00014f30       __unwindfunclet$?construct@?$allocator@UVertexFace@?3??ComputeVertexNormals@ObjMeshDX@@AAEXXZ@@std@@QAEXPAUVertexFace@?3??ComputeVertexNormals@ObjMeshDX@@AAEXXZ@@Z$0 00415f30 f   DeferredShadingMSAA.obj
 0001:00014f30       __unwindfunclet$??$construct@KK@?$allocator@K@std@@QAEXPAK$$QAK@Z$0 00415f30 f   DeferredShadingMSAA.obj
 0001:00014f30       __unwindfunclet$??$construct@HAAH@?$allocator@H@std@@QAEXPAHAAH@Z$0 00415f30 f   DeferredShadingMSAA.obj
 0001:00014f30       __unwindfunclet$??$construct@PAUMaterial@@AAPAU1@@?$allocator@PAUMaterial@@@std@@QAEXPAPAUMaterial@@AAPAU2@@Z$0 00415f30 f   DeferredShadingMSAA.obj
 0001:00014f30       __unwindfunclet$??$construct@PAUCacheEntry@@PAU1@@?$allocator@PAUCacheEntry@@@std@@QAEXPAPAUCacheEntry@@$$QAPAU2@@Z$0 00415f30 f   DeferredShadingMSAA.obj
 0001:00014f30       __unwindfunclet$??$construct@PAVObjMeshDX@@AAPAV1@@?$allocator@PAVObjMeshDX@@@std@@QAEXPAPAVObjMeshDX@@AAPAV2@@Z$0 00415f30 f   DeferredShadingMSAA.obj
 0001:00014f30       __unwindfunclet$??$construct@PADAAPAD@?$allocator@D@std@@QAEXPAPADAAPAD@Z$0 00415f30 f   DeferredShadingMSAA.obj
 0001:00014f30       __unwindfunclet$??$construct@UD3DXVECTOR2@@U1@@?$allocator@UD3DXVECTOR2@@@std@@QAEXPAUD3DXVECTOR2@@$$QAU2@@Z$0 00415f30 f   DeferredShadingMSAA.obj
 0001:00014f30       __unwindfunclet$??$construct@KAAK@?$allocator@K@std@@QAEXPAKAAK@Z$0 00415f30 f   DeferredShadingMSAA.obj
 0001:00014f30       __unwindfunclet$??$construct@PAVIVisualController@@ABQAV1@@?$allocator@U?$_List_node@PAVIVisualController@@PAX@std@@@std@@QAEXPAPAVIVisualController@@ABQAV2@@Z$0 00415f30 f   DeferredShadingMSAA.obj
 0001:00014f30       __unwindfunclet$??$construct@UD3DXVECTOR3@@U1@@?$allocator@UD3DXVECTOR3@@@std@@QAEXPAUD3DXVECTOR3@@$$QAU2@@Z$0 00415f30 f   DeferredShadingMSAA.obj
 0001:00014f30       __unwindfunclet$??$construct@PAU?$_List_node@NPAX@std@@AAPAU12@@?$allocator@U?$_List_node@NPAX@std@@@std@@QAEXPAPAU?$_List_node@NPAX@1@AAPAU21@@Z$0 00415f30 f   DeferredShadingMSAA.obj
 0001:00014f30       __unwindfunclet$??$construct@UMeshFace@@U1@@?$allocator@UMeshFace@@@std@@QAEXPAUMeshFace@@$$QAU2@@Z$0 00415f30 f   DeferredShadingMSAA.obj
 0001:00014f30       __unwindfunclet$??$construct@NABN@?$allocator@U?$_List_node@NPAX@std@@@std@@QAEXPANABN@Z$0 00415f30 f   DeferredShadingMSAA.obj
 0001:00014f30       __unwindfunclet$??$construct@UVertexFace@?3??ComputeVertexNormals@ObjMeshDX@@AAEXXZ@U1?3??23@AAEXXZ@@?$allocator@UVertexFace@?3??ComputeVertexNormals@ObjMeshDX@@AAEXXZ@@std@@QAEXPAUVertexFace@?3??ComputeVertexNormals@ObjMeshDX@@AAEXXZ@$$QAU2?3??34@AAEXXZ@@Z$0 00415f30 f   DeferredShadingMSAA.obj
 0001:00014f30       __unwindfunclet$??$construct@PA_WAAPA_W@?$allocator@_W@std@@QAEXPAPA_WAAPA_W@Z$0 00415f30 f   DeferredShadingMSAA.obj
 0001:00014f30       __unwindfunclet$??$construct@PAU?$_List_node@PAVIVisualController@@PAX@std@@AAPAU12@@?$allocator@U?$_List_node@PAVIVisualController@@PAX@std@@@std@@QAEXPAPAU?$_List_node@PAVIVisualController@@PAX@1@AAPAU21@@Z$0 00415f30 f   DeferredShadingMSAA.obj
 0001:00014f41       __ehhandler$??$construct@PAU?$_List_node@PAVIVisualController@@PAX@std@@AAPAU12@@?$allocator@U?$_List_node@PAVIVisualController@@PAX@std@@@std@@QAEXPAPAU?$_List_node@PAVIVisualController@@PAX@1@AAPAU21@@Z 00415f41 f   DeferredShadingMSAA.obj
 0001:00014f41       __ehhandler$??$construct@PAU?$_List_node@NPAX@std@@AAPAU12@@?$allocator@U?$_List_node@NPAX@std@@@std@@QAEXPAPAU?$_List_node@NPAX@1@AAPAU21@@Z 00415f41 f   DeferredShadingMSAA.obj
 0001:00014f41       __ehhandler$??$construct@UVertexFace@?3??ComputeVertexNormals@ObjMeshDX@@AAEXXZ@U1?3??23@AAEXXZ@@?$allocator@UVertexFace@?3??ComputeVertexNormals@ObjMeshDX@@AAEXXZ@@std@@QAEXPAUVertexFace@?3??ComputeVertexNormals@ObjMeshDX@@AAEXXZ@$$QAU2?3??34@AAEXXZ@@Z 00415f41 f   DeferredShadingMSAA.obj
 0001:00014f41       __ehhandler$??$construct@NABN@?$allocator@U?$_List_node@NPAX@std@@@std@@QAEXPANABN@Z 00415f41 f   DeferredShadingMSAA.obj
 0001:00014f41       __ehhandler$??$construct@UD3DXVECTOR2@@U1@@?$allocator@UD3DXVECTOR2@@@std@@QAEXPAUD3DXVECTOR2@@$$QAU2@@Z 00415f41 f   DeferredShadingMSAA.obj
 0001:00014f41       __ehhandler$??$construct@PAVIVisualController@@ABQAV1@@?$allocator@U?$_List_node@PAVIVisualController@@PAX@std@@@std@@QAEXPAPAVIVisualController@@ABQAV2@@Z 00415f41 f   DeferredShadingMSAA.obj
 0001:00014f41       __ehhandler$?construct@?$allocator@UD3DXVECTOR3@@@std@@QAEXPAUD3DXVECTOR3@@@Z 00415f41 f   DeferredShadingMSAA.obj
 0001:00014f41       __ehhandler$??$construct@PA_WAAPA_W@?$allocator@_W@std@@QAEXPAPA_WAAPA_W@Z 00415f41 f   DeferredShadingMSAA.obj
 0001:00014f41       __ehhandler$??$construct@UD3DXVECTOR3@@U1@@?$allocator@UD3DXVECTOR3@@@std@@QAEXPAUD3DXVECTOR3@@$$QAU2@@Z 00415f41 f   DeferredShadingMSAA.obj
 0001:00014f41       __ehhandler$??$construct@PAUCacheEntry@@PAU1@@?$allocator@PAUCacheEntry@@@std@@QAEXPAPAUCacheEntry@@$$QAPAU2@@Z 00415f41 f   DeferredShadingMSAA.obj
 0001:00014f41       __ehhandler$??$construct@PAVObjMeshDX@@AAPAV1@@?$allocator@PAVObjMeshDX@@@std@@QAEXPAPAVObjMeshDX@@AAPAV2@@Z 00415f41 f   DeferredShadingMSAA.obj
 0001:00014f41       __ehhandler$??$construct@HAAH@?$allocator@H@std@@QAEXPAHAAH@Z 00415f41 f   DeferredShadingMSAA.obj
 0001:00014f41       __ehhandler$??$construct@PAUMaterial@@AAPAU1@@?$allocator@PAUMaterial@@@std@@QAEXPAPAUMaterial@@AAPAU2@@Z 00415f41 f   DeferredShadingMSAA.obj
 0001:00014f41       __ehhandler$?construct@?$allocator@UVertexFace@?3??ComputeVertexNormals@ObjMeshDX@@AAEXXZ@@std@@QAEXPAUVertexFace@?3??ComputeVertexNormals@ObjMeshDX@@AAEXXZ@@Z 00415f41 f   DeferredShadingMSAA.obj
 0001:00014f41       __ehhandler$??$construct@KK@?$allocator@K@std@@QAEXPAK$$QAK@Z 00415f41 f   DeferredShadingMSAA.obj
 0001:00014f41       __ehhandler$??$construct@KAAK@?$allocator@K@std@@QAEXPAKAAK@Z 00415f41 f   DeferredShadingMSAA.obj
 0001:00014f41       __ehhandler$??$construct@PADAAPAD@?$allocator@D@std@@QAEXPAPADAAPAD@Z 00415f41 f   DeferredShadingMSAA.obj
 0001:00014f41       __ehhandler$??$construct@UMeshFace@@U1@@?$allocator@UMeshFace@@@std@@QAEXPAUMeshFace@@$$QAU2@@Z 00415f41 f   DeferredShadingMSAA.obj
 0001:00014f41       __ehhandler$??$construct@UMeshFace@@AAU1@@?$allocator@UMeshFace@@@std@@QAEXPAUMeshFace@@AAU2@@Z 00415f41 f   DeferredShadingMSAA.obj
 0001:00014f60       __unwindfunclet$??0DeviceManager@@QAE@XZ$0 00415f60 f   DeferredShadingMSAA.obj
 0001:00014f6e       __unwindfunclet$??0DeviceManager@@QAE@XZ$1 00415f6e f   DeferredShadingMSAA.obj
 0001:00014f7c       __ehhandler$??0DeviceManager@@QAE@XZ 00415f7c f   DeferredShadingMSAA.obj
 0001:00014fa0       __unwindfunclet$??1DeviceManager@@UAE@XZ$0 00415fa0 f   DeferredShadingMSAA.obj
 0001:00014fae       __unwindfunclet$??1DeviceManager@@UAE@XZ$1 00415fae f   DeferredShadingMSAA.obj
 0001:00014fbc       __unwindfunclet$??1DeviceManager@@UAE@XZ$2 00415fbc f   DeferredShadingMSAA.obj
 0001:00014fca       __ehhandler$??1DeviceManager@@UAE@XZ 00415fca f   DeferredShadingMSAA.obj
 0001:00014ff0       __ehhandler$?_Buynode0@?$_List_alloc@$0A@U?$_List_base_types@NV?$allocator@N@std@@@std@@@std@@QAEPAU?$_List_node@NPAX@2@PAU32@0@Z 00415ff0 f   DeferredShadingMSAA.obj
 0001:00015010       __ehhandler$?_Buynode0@?$_List_alloc@$0A@U?$_List_base_types@PAVIVisualController@@V?$allocator@PAVIVisualController@@@std@@@std@@@std@@QAEPAU?$_List_node@PAVIVisualController@@PAX@2@PAU32@0@Z 00416010 f   DeferredShadingMSAA.obj
 0001:00015030       __ehhandler$?_Copy@?$basic_string@_WU?$char_traits@_W@std@@V?$allocator@_W@2@@std@@QAEXII@Z 00416030 f   DeferredShadingMSAA.obj
 0001:00015050       __unwindfunclet$??0ObjMeshDX@@QAE@XZ$0 00416050 f   ObjMeshDX.obj
 0001:00015058       __unwindfunclet$??0ObjMeshDX@@QAE@XZ$1 00416058 f   ObjMeshDX.obj
 0001:00015063       __unwindfunclet$??0ObjMeshDX@@QAE@XZ$2 00416063 f   ObjMeshDX.obj
 0001:0001506e       __unwindfunclet$??0ObjMeshDX@@QAE@XZ$3 0041606e f   ObjMeshDX.obj
 0001:00015079       __unwindfunclet$??0ObjMeshDX@@QAE@XZ$4 00416079 f   ObjMeshDX.obj
 0001:00015084       __unwindfunclet$??0ObjMeshDX@@QAE@XZ$5 00416084 f   ObjMeshDX.obj
 0001:0001508f       __ehhandler$??0ObjMeshDX@@QAE@XZ 0041608f f   ObjMeshDX.obj
 0001:000150aa       __unwindfunclet$??1ObjMeshDX@@QAE@XZ$0 004160aa f   ObjMeshDX.obj
 0001:000150b2       __unwindfunclet$??1ObjMeshDX@@QAE@XZ$1 004160b2 f   ObjMeshDX.obj
 0001:000150bd       __unwindfunclet$??1ObjMeshDX@@QAE@XZ$2 004160bd f   ObjMeshDX.obj
 0001:000150c8       __unwindfunclet$??1ObjMeshDX@@QAE@XZ$3 004160c8 f   ObjMeshDX.obj
 0001:000150d3       __unwindfunclet$??1ObjMeshDX@@QAE@XZ$4 004160d3 f   ObjMeshDX.obj
 0001:000150de       __unwindfunclet$??1ObjMeshDX@@QAE@XZ$5 004160de f   ObjMeshDX.obj
 0001:000150e9       __unwindfunclet$??1ObjMeshDX@@QAE@XZ$6 004160e9 f   ObjMeshDX.obj
 0001:000150f4       __ehhandler$??1ObjMeshDX@@QAE@XZ 004160f4 f   ObjMeshDX.obj
 0001:0001510f       __unwindfunclet$?LoadGeometryFromOBJ@ObjMeshDX@@AAEJPB_W@Z$0 0041610f f   ObjMeshDX.obj
 0001:0001511a       __unwindfunclet$?LoadGeometryFromOBJ@ObjMeshDX@@AAEJPB_W@Z$1 0041611a f   ObjMeshDX.obj
 0001:00015125       __unwindfunclet$?LoadGeometryFromOBJ@ObjMeshDX@@AAEJPB_W@Z$2 00416125 f   ObjMeshDX.obj
 0001:00015130       __unwindfunclet$?LoadGeometryFromOBJ@ObjMeshDX@@AAEJPB_W@Z$3 00416130 f   ObjMeshDX.obj
 0001:0001513e       __unwindfunclet$?LoadGeometryFromOBJ@ObjMeshDX@@AAEJPB_W@Z$4 0041613e f   ObjMeshDX.obj
 0001:00015149       __unwindfunclet$?LoadGeometryFromOBJ@ObjMeshDX@@AAEJPB_W@Z$5 00416149 f   ObjMeshDX.obj
 0001:00015157       __ehhandler$?LoadGeometryFromOBJ@ObjMeshDX@@AAEJPB_W@Z 00416157 f   ObjMeshDX.obj
 0001:0001517f       __unwindfunclet$?LoadMaterialsFromMTL@ObjMeshDX@@AAEJPB_W@Z$0 0041617f f   ObjMeshDX.obj
 0001:0001518a       __ehhandler$?LoadMaterialsFromMTL@ObjMeshDX@@AAEJPB_W@Z 0041618a f   ObjMeshDX.obj
 0001:000151b2       __unwindfunclet$?ComputeVertexNormals@ObjMeshDX@@AAEXXZ$0 004161b2 f   ObjMeshDX.obj
 0001:000151bd       __unwindfunclet$?ComputeVertexNormals@ObjMeshDX@@AAEXXZ$1 004161bd f   ObjMeshDX.obj
 0001:000151c8       __ehhandler$?ComputeVertexNormals@ObjMeshDX@@AAEXXZ 004161c8 f   ObjMeshDX.obj
 0001:000151f0       __unwindfunclet$??$?5_WU?$char_traits@_W@std@@@std@@YAAAV?$basic_istream@_WU?$char_traits@_W@std@@@0@AAV10@PA_W@Z$2 004161f0 f   ObjMeshDX.obj
 0001:000151f8       __unwindfunclet$??$?5_WU?$char_traits@_W@std@@@std@@YAAAV?$basic_istream@_WU?$char_traits@_W@std@@@0@AAV10@PA_W@Z$3 004161f8 f   ObjMeshDX.obj
 0001:00015200       __ehhandler$??$?5_WU?$char_traits@_W@std@@@std@@YAAAV?$basic_istream@_WU?$char_traits@_W@std@@@0@AAV10@PA_W@Z 00416200 f   ObjMeshDX.obj
 0001:00015220       __ehhandler$??$_Uninit_def_fill_n@PAUD3DXVECTOR3@@IV?$allocator@UD3DXVECTOR3@@@std@@U1@@std@@YAXPAUD3DXVECTOR3@@IAAU?$_Wrap_alloc@V?$allocator@UD3DXVECTOR3@@@std@@@0@0U_Nonscalar_ptr_iterator_tag@0@@Z 00416220 f   ObjMeshDX.obj
 0001:00015240       __ehhandler$??$_Uninit_def_fill_n@PAUVertexFace@?3??ComputeVertexNormals@ObjMeshDX@@AAEXXZ@IV?$allocator@UVertexFace@?3??ComputeVertexNormals@ObjMeshDX@@AAEXXZ@@std@@U1?3??23@AAEXXZ@@std@@YAXPAUVertexFace@?3??ComputeVertexNormals@ObjMeshDX@@AAEXXZ@IAAU?$_Wrap_alloc@V?$allocator@UVertexFace@?3??ComputeVertexNormals@ObjMeshDX@@AAEXXZ@@std@@@0@0U_Nonscalar_ptr_iterator_tag@0@@Z 00416240 f   ObjMeshDX.obj
 0001:00015260       __ehhandler$??$_Uninit_move@PAUD3DXVECTOR2@@PAU1@V?$allocator@UD3DXVECTOR2@@@std@@U1@@std@@YAPAUD3DXVECTOR2@@PAU1@00AAU?$_Wrap_alloc@V?$allocator@UD3DXVECTOR2@@@std@@@0@0U_Nonscalar_ptr_iterator_tag@0@@Z 00416260 f   ObjMeshDX.obj
 0001:00015280       __ehhandler$??$_Uninit_move@PAUD3DXVECTOR3@@PAU1@V?$allocator@UD3DXVECTOR3@@@std@@U1@@std@@YAPAUD3DXVECTOR3@@PAU1@00AAU?$_Wrap_alloc@V?$allocator@UD3DXVECTOR3@@@std@@@0@0U_Nonscalar_ptr_iterator_tag@0@@Z 00416280 f   ObjMeshDX.obj
 0001:000152a0       __ehhandler$??$_Uninit_move@PAUMeshFace@@PAU1@V?$allocator@UMeshFace@@@std@@U1@@std@@YAPAUMeshFace@@PAU1@00AAU?$_Wrap_alloc@V?$allocator@UMeshFace@@@std@@@0@0U_Nonscalar_ptr_iterator_tag@0@@Z 004162a0 f   ObjMeshDX.obj
 0001:000152c0       __ehhandler$??$_Uninit_move@PAUMeshVertex@@PAU1@V?$allocator@UMeshVertex@@@std@@U1@@std@@YAPAUMeshVertex@@PAU1@00AAU?$_Wrap_alloc@V?$allocator@UMeshVertex@@@std@@@0@0U_Nonscalar_ptr_iterator_tag@0@@Z 004162c0 f   ObjMeshDX.obj
 0001:000152e0       __ehhandler$??$_Uninit_move@PAUVertexFace@?3??ComputeVertexNormals@ObjMeshDX@@AAEXXZ@PAU1?3??23@AAEXXZ@V?$allocator@UVertexFace@?3??ComputeVertexNormals@ObjMeshDX@@AAEXXZ@@std@@U1?3??23@AAEXXZ@@std@@YAPAUVertexFace@?3??ComputeVertexNormals@ObjMeshDX@@AAEXXZ@PAU1?3??23@AAEXXZ@00AAU?$_Wrap_alloc@V?$allocator@UVertexFace@?3??ComputeVertexNormals@ObjMeshDX@@AAEXXZ@@std@@@0@0U_Nonscalar_ptr_iterator_tag@0@@Z 004162e0 f   ObjMeshDX.obj
 0001:00015300       __unwindfunclet$??$construct@UMeshVertex@@U1@@?$allocator@UMeshVertex@@@std@@QAEXPAUMeshVertex@@$$QAU2@@Z$0 00416300 f   ObjMeshDX.obj
 0001:00015300       __unwindfunclet$??$construct@UMeshVertex@@AAU1@@?$allocator@UMeshVertex@@@std@@QAEXPAUMeshVertex@@AAU2@@Z$0 00416300 f   ObjMeshDX.obj
 0001:00015311       __ehhandler$??$construct@UMeshVertex@@U1@@?$allocator@UMeshVertex@@@std@@QAEXPAUMeshVertex@@$$QAU2@@Z 00416311 f   ObjMeshDX.obj
 0001:00015311       __ehhandler$??$construct@UMeshVertex@@AAU1@@?$allocator@UMeshVertex@@@std@@QAEXPAUMeshVertex@@AAU2@@Z 00416311 f   ObjMeshDX.obj
 0001:00015330       __unwindfunclet$??$use_facet@V?$codecvt@_WDH@std@@@std@@YAABV?$codecvt@_WDH@0@ABVlocale@0@@Z$0 00416330 f   ObjMeshDX.obj
 0001:00015330       __unwindfunclet$??$use_facet@V?$ctype@_W@std@@@std@@YAABV?$ctype@_W@0@ABVlocale@0@@Z$0 00416330 f   ObjMeshDX.obj
 0001:00015339       __ehhandler$??$use_facet@V?$codecvt@_WDH@std@@@std@@YAABV?$codecvt@_WDH@0@ABVlocale@0@@Z 00416339 f   ObjMeshDX.obj
 0001:00015339       __ehhandler$??$use_facet@V?$ctype@_W@std@@@std@@YAABV?$ctype@_W@0@ABVlocale@0@@Z 00416339 f   ObjMeshDX.obj
 0001:00015360       __unwindfunclet$??0?$basic_filebuf@_WU?$char_traits@_W@std@@@std@@QAE@PAU_iobuf@@@Z$0 00416360 f   ObjMeshDX.obj
 0001:00015369       __ehhandler$??0?$basic_filebuf@_WU?$char_traits@_W@std@@@std@@QAE@PAU_iobuf@@@Z 00416369 f   ObjMeshDX.obj
 0001:00015390       __unwindfunclet$??0?$basic_ifstream@_WU?$char_traits@_W@std@@@std@@QAE@PB_WHH@Z$0 00416390 f   ObjMeshDX.obj
 0001:000153ad       __unwindfunclet$??0?$basic_ifstream@_WU?$char_traits@_W@std@@@std@@QAE@PB_WHH@Z$1 004163ad f   ObjMeshDX.obj
 0001:000153b9       __unwindfunclet$??0?$basic_ifstream@_WU?$char_traits@_W@std@@@std@@QAE@PB_WHH@Z$2 004163b9 f   ObjMeshDX.obj
 0001:000153c4       __ehhandler$??0?$basic_ifstream@_WU?$char_traits@_W@std@@@std@@QAE@PB_WHH@Z 004163c4 f   ObjMeshDX.obj
 0001:000153e0       __ehhandler$??0?$vector@HV?$allocator@H@std@@@std@@QAE@ABV01@@Z 004163e0 f   ObjMeshDX.obj
 0001:00015400       __unwindfunclet$??0sentry@?$basic_istream@_WU?$char_traits@_W@std@@@std@@QAE@AAV12@_N@Z$0 00416400 f   ObjMeshDX.obj
 0001:00015408       __ehhandler$??0sentry@?$basic_istream@_WU?$char_traits@_W@std@@@std@@QAE@AAV12@_N@Z 00416408 f   ObjMeshDX.obj
 0001:00015430       __unwindfunclet$?_Endwrite@?$basic_filebuf@_WU?$char_traits@_W@std@@@std@@IAE_NXZ$0 00416430 f   ObjMeshDX.obj
 0001:00015438       __ehhandler$?_Endwrite@?$basic_filebuf@_WU?$char_traits@_W@std@@@std@@IAE_NXZ 00416438 f   ObjMeshDX.obj
 0001:00015460       __ehhandler$?_Reallocate@?$vector@KV?$allocator@K@std@@@std@@IAEXI@Z 00416460 f   ObjMeshDX.obj
 0001:00015460       __ehhandler$?_Reallocate@?$vector@PAUMaterial@@V?$allocator@PAUMaterial@@@std@@@std@@IAEXI@Z 00416460 f   ObjMeshDX.obj
 0001:00015460       __ehhandler$?_Reallocate@?$vector@HV?$allocator@H@std@@@std@@IAEXI@Z 00416460 f   ObjMeshDX.obj
 0001:00015460       __ehhandler$?_Reallocate@?$vector@PAVObjMeshDX@@V?$allocator@PAVObjMeshDX@@@std@@@std@@IAEXI@Z 00416460 f   ObjMeshDX.obj
 0001:00015460       __ehhandler$?_Reallocate@?$vector@PAUCacheEntry@@V?$allocator@PAUCacheEntry@@@std@@@std@@IAEXI@Z 00416460 f   ObjMeshDX.obj
 0001:00015480       __ehhandler$?_Reallocate@?$vector@UD3DXVECTOR2@@V?$allocator@UD3DXVECTOR2@@@std@@@std@@IAEXI@Z 00416480 f   ObjMeshDX.obj
 0001:000154a0       __ehhandler$?_Reallocate@?$vector@UD3DXVECTOR3@@V?$allocator@UD3DXVECTOR3@@@std@@@std@@IAEXI@Z 004164a0 f   ObjMeshDX.obj
 0001:000154c0       __ehhandler$?_Reallocate@?$vector@UMeshFace@@V?$allocator@UMeshFace@@@std@@@std@@IAEXI@Z 004164c0 f   ObjMeshDX.obj
 0001:000154e0       __ehhandler$?_Reallocate@?$vector@UMeshVertex@@V?$allocator@UMeshVertex@@@std@@@std@@IAEXI@Z 004164e0 f   ObjMeshDX.obj
 0001:00015500       __ehhandler$?_Reallocate@?$vector@UVertexFace@?3??ComputeVertexNormals@ObjMeshDX@@AAEXXZ@V?$allocator@UVertexFace@?3??ComputeVertexNormals@ObjMeshDX@@AAEXXZ@@std@@@std@@IAEXI@Z 00416500 f   ObjMeshDX.obj
 0001:00015520       __unwindfunclet$?open@?$basic_filebuf@_WU?$char_traits@_W@std@@@std@@QAEPAV12@PB_WHH@Z$0 00416520 f   ObjMeshDX.obj
 0001:00015528       __ehhandler$?open@?$basic_filebuf@_WU?$char_traits@_W@std@@@std@@QAEPAV12@PB_WHH@Z 00416528 f   ObjMeshDX.obj
 0001:00015550       __unwindfunclet$?overflow@?$basic_filebuf@_WU?$char_traits@_W@std@@@std@@MAEGG@Z$0 00416550 f   ObjMeshDX.obj
 0001:00015558       __ehhandler$?overflow@?$basic_filebuf@_WU?$char_traits@_W@std@@@std@@MAEGG@Z 00416558 f   ObjMeshDX.obj
 0001:00015580       __ehhandler$?resize@?$vector@UD3DXVECTOR3@@V?$allocator@UD3DXVECTOR3@@@std@@@std@@QAEXI@Z 00416580 f   ObjMeshDX.obj
 0001:000155a0       __ehhandler$?resize@?$vector@UVertexFace@?3??ComputeVertexNormals@ObjMeshDX@@AAEXXZ@V?$allocator@UVertexFace@?3??ComputeVertexNormals@ObjMeshDX@@AAEXXZ@@std@@@std@@QAEXI@Z 004165a0 f   ObjMeshDX.obj
 0001:000155c0       __unwindfunclet$?uflow@?$basic_filebuf@_WU?$char_traits@_W@std@@@std@@MAEGXZ$0 004165c0 f   ObjMeshDX.obj
 0001:000155c8       __ehhandler$?uflow@?$basic_filebuf@_WU?$char_traits@_W@std@@@std@@MAEGXZ 004165c8 f   ObjMeshDX.obj
 0001:000155f0       __ehhandler$??$_Buynode@ABN@?$_List_buy@NV?$allocator@N@std@@@std@@QAEPAU?$_List_node@NPAX@1@PAU21@0ABN@Z 004165f0 f   nvidiautilsDEBUG:DeviceManager.obj
 0001:00015610       __ehhandler$??$_Buynode@ABQAVIVisualController@@@?$_List_buy@PAVIVisualController@@V?$allocator@PAVIVisualController@@@std@@@std@@QAEPAU?$_List_node@PAVIVisualController@@PAX@1@PAU21@0ABQAVIVisualController@@@Z 00416610 f   nvidiautilsDEBUG:DeviceManager.obj
 0001:00015630       __unwindfunclet$?_Facet_Register@std@@YAXPAV_Facet_base@1@@Z$0 00416630 f   msvcprtd:locale0_implib.obj
 0001:00015649       __ehhandler$?_Facet_Register@std@@YAXPAV_Facet_base@1@@Z 00416649 f   msvcprtd:locale0_implib.obj
 0001:00015670       ??__F?_Generic_object@?$_Error_objects@H@std@@2V_Generic_error_category@2@A@@YAXXZ 00416670 f   DeferredRenderer.obj
 0001:00015680       ??__F?_Iostream_object@?$_Error_objects@H@std@@2V_Iostream_error_category@2@A@@YAXXZ 00416680 f   DeferredRenderer.obj
 0001:00015690       ??__F?_System_object@?$_Error_objects@H@std@@2V_System_error_category@2@A@@YAXXZ 00416690 f   DeferredRenderer.obj
 0001:000156a0       ??__F_Fac_tidy_reg@std@@YAXXZ 004166a0 f   msvcprtd:locale0_implib.obj
 0002:0000034c       _pcppinit                  0041734c     MSVCRTD:wcrtexew.obj
 0002:00000350       __Fac_tidy_reg$initializer$ 00417350     msvcprtd:locale0_implib.obj
 0002:00000354       _piecewise_construct$initializer$ 00417354     DeferredRenderer.obj
 0002:00000358       _allocator_arg$initializer$ 00417358     DeferredRenderer.obj
 0002:0000035c       ?_Generic_object$initializer$@?$_Error_objects@H@std@@2P6AXXZA 0041735c     DeferredRenderer.obj
 0002:00000360       ?_Iostream_object$initializer$@?$_Error_objects@H@std@@2P6AXXZA 00417360     DeferredRenderer.obj
 0002:00000364       ?_System_object$initializer$@?$_Error_objects@H@std@@2P6AXXZA 00417364     DeferredRenderer.obj
 0002:00000368       ?id$initializer$@?$num_put@DV?$back_insert_iterator@V?$basic_string@DU?$char_traits@D@std@@V?$allocator@D@2@@std@@@std@@@std@@2P6AXXZA 00417368     DeferredRenderer.obj
 0002:0000036c       ?id$initializer$@?$num_put@_WV?$back_insert_iterator@V?$basic_string@_WU?$char_traits@_W@std@@V?$allocator@_W@2@@std@@@std@@@std@@2P6AXXZA 0041736c     DeferredRenderer.obj
 0002:00000370       _piecewise_construct$initializer$ 00417370     DeferredShadingMSAA.obj
 0002:00000374       _allocator_arg$initializer$ 00417374     DeferredShadingMSAA.obj
 0002:00000378       _g_Camera$initializer$     00417378     DeferredShadingMSAA.obj
 0002:0000037c       _piecewise_construct$initializer$ 0041737c     ObjMeshDX.obj
 0002:00000380       _allocator_arg$initializer$ 00417380     ObjMeshDX.obj
 0002:00000384       _piecewise_construct$initializer$ 00417384     nvidiautilsDEBUG:DeviceManager.obj
 0002:00000388       _allocator_arg$initializer$ 00417388     nvidiautilsDEBUG:DeviceManager.obj
 0002:0000038c       _piecewise_construct$initializer$ 0041738c     msvcprtd:locale0_implib.obj
 0002:00000390       _allocator_arg$initializer$ 00417390     msvcprtd:locale0_implib.obj
 0002:0000039c       _pcinit                    0041739c     MSVCRTD:wcrtexew.obj
 0002:000003a0       _pinit                     004173a0     MSVCRTD:atonexit.obj
 0002:000003a4       _pinit                     004173a4     MSVCRTD:wcrtexew.obj
 0002:000003e8       $SG128584                  004173e8     DeferredRenderer.obj
 0002:000003ec       $SG128598                  004173ec     DeferredRenderer.obj
 0002:000003f0       $SG135951                  004173f0     DeferredRenderer.obj
 0002:00000454       $SG135953                  00417454     DeferredRenderer.obj
 0002:0000045c       $SG135955                  0041745c     DeferredRenderer.obj
 0002:00000464       $SG135957                  00417464     DeferredRenderer.obj
 0002:0000046c       $SG135958                  0041746c     DeferredRenderer.obj
 0002:000004a0       $SG135960                  004174a0     DeferredRenderer.obj
 0002:000004a4       $SG135974                  004174a4     DeferredRenderer.obj
 0002:000004a8       $SG135961                  004174a8     DeferredRenderer.obj
 0002:00000518       $SG135966                  00417518     DeferredRenderer.obj
 0002:00000520       $SG135967                  00417520     DeferredRenderer.obj
 0002:00000590       $SG135970                  00417590     DeferredRenderer.obj
 0002:00000598       $SG135971                  00417598     DeferredRenderer.obj
 0002:00000600       $SG135975                  00417600     DeferredRenderer.obj
 0002:00000670       $SG135978                  00417670     DeferredRenderer.obj
 0002:00000674       $SG135982                  00417674     DeferredRenderer.obj
 0002:00000678       $SG135979                  00417678     DeferredRenderer.obj
 0002:000006e8       $SG135983                  004176e8     DeferredRenderer.obj
 0002:00000750       $SG135986                  00417750     DeferredRenderer.obj
 0002:00000760       $SG135987                  00417760     DeferredRenderer.obj
 0002:00000918       $SG132281                  00417918     DeferredShadingMSAA.obj
 0002:00000978       $SG132282                  00417978     DeferredShadingMSAA.obj
 0002:00000984       $SG128580                  00417984     DeferredShadingMSAA.obj
 0002:00000988       $SG132283                  00417988     DeferredShadingMSAA.obj
 0002:00000a0c       $SG128594                  00417a0c     DeferredShadingMSAA.obj
 0002:00000cb0       $SG139269                  00417cb0     ObjMeshDX.obj
 0002:00000cbe       $SG128581                  00417cbe     ObjMeshDX.obj
 0002:00000cc0       $SG139279                  00417cc0     ObjMeshDX.obj
 0002:00000cc4       $SG139282                  00417cc4     ObjMeshDX.obj
 0002:00000ccc       $SG139289                  00417ccc     ObjMeshDX.obj
 0002:00000cd4       $SG139296                  00417cd4     ObjMeshDX.obj
 0002:00000cdc       $SG139304                  00417cdc     ObjMeshDX.obj
 0002:00000ce0       $SG139305                  00417ce0     ObjMeshDX.obj
 0002:00000ce8       $SG139308                  00417ce8     ObjMeshDX.obj
 0002:00000cf0       $SG139312                  00417cf0     ObjMeshDX.obj
 0002:00000cfc       $SG139316                  00417cfc     ObjMeshDX.obj
 0002:00000d0c       $SG137417                  00417d0c     ObjMeshDX.obj
 0002:00000d10       $SG137420                  00417d10     ObjMeshDX.obj
 0002:00000d14       $SG137444                  00417d14     ObjMeshDX.obj
 0002:00000d1c       $SG137450                  00417d1c     ObjMeshDX.obj
 0002:00000d24       $SG137457                  00417d24     ObjMeshDX.obj
 0002:00000d28       $SG137528                  00417d28     ObjMeshDX.obj
 0002:00000d2c       $SG137544                  00417d2c     ObjMeshDX.obj
 0002:00000d3c       $SG137558                  00417d3c     ObjMeshDX.obj
 0002:00000d4c       $SG135590                  00417d4c     ObjMeshDX.obj
 0002:00000d58       $SG135591                  00417d58     ObjMeshDX.obj
 0002:00000d60       $SG135592                  00417d60     ObjMeshDX.obj
 0002:00000d6c       $SG128595                  00417d6c     ObjMeshDX.obj
 0002:00000dc4       $SG137168                  00417dc4     ObjMeshDX.obj
 0002:00000f10       $SG109175                  00417f10     nvidiautilsDEBUG:DeviceManager.obj
 0002:00000f20       $SG109180                  00417f20     nvidiautilsDEBUG:DeviceManager.obj
 0002:00000f30       $SG109182                  00417f30     nvidiautilsDEBUG:DeviceManager.obj
 0002:000011f0       _Int32ToUInt32             004181f0     MSVCRTD:ftol3.obj
 0002:00001200       _MantissaMask              00418200     MSVCRTD:ftol3.obj
 0002:00001208       _IntegerBit                00418208     MSVCRTD:ftol3.obj
 0002:00001210       _SignBit64                 00418210     MSVCRTD:ftol3.obj
 0002:00001218       _MinFP64                   00418218     MSVCRTD:ftol3.obj
 0002:00001220       _MinInt64                  00418220     MSVCRTD:ftol3.obj
 0002:00001228       _MaxInt64                  00418228     MSVCRTD:ftol3.obj
 0002:00001230       _MaxUInt64                 00418230     MSVCRTD:ftol3.obj
 0002:00001238       _MaxFP32                   00418238     MSVCRTD:ftol3.obj
 0002:00001240       _MinFP32                   00418240     MSVCRTD:ftol3.obj
 0002:00001248       _MinSubInexact             00418248     MSVCRTD:ftol3.obj
 0002:00001250       _FpExcptTable              00418250     MSVCRTD:ftol3.obj
 0002:00001260       _i1075                     00418260     MSVCRTD:ftol3.obj
 0002:00001264       _i1087                     00418264     MSVCRTD:ftol3.obj
 0002:00001268       _x0800                     00418268     MSVCRTD:ftol3.obj
 0002:0000126c       _x17FF                     0041826c     MSVCRTD:ftol3.obj
 0002:00001270       _CWMask                    00418270     MSVCRTD:ftol3.obj
 0002:00001274       _GS_ExceptionPointers      00418274     MSVCRTD:gs_report.obj
 0002:00001ab0       __catchsym$?_Copy@?$basic_string@DU?$char_traits@D@std@@V?$allocator@D@2@@std@@QAEXII@Z$5 00418ab0     DeferredRenderer.obj
 0002:00001ac0       __catchsym$?_Copy@?$basic_string@DU?$char_traits@D@std@@V?$allocator@D@2@@std@@QAEXII@Z$4 00418ac0     DeferredRenderer.obj
 0002:00001ad0       __unwindtable$?_Copy@?$basic_string@DU?$char_traits@D@std@@V?$allocator@D@2@@std@@QAEXII@Z 00418ad0     DeferredRenderer.obj
 0002:00001af0       __ehfuncinfo$?_Copy@?$basic_string@DU?$char_traits@D@std@@V?$allocator@D@2@@std@@QAEXII@Z 00418af0     DeferredRenderer.obj
 0002:00001b14       __tryblocktable$?_Copy@?$basic_string@DU?$char_traits@D@std@@V?$allocator@D@2@@std@@QAEXII@Z 00418b14     DeferredRenderer.obj
 0002:00001b3c       __unwindtable$?DeviceCreated@DeferredRendererController@@UAEJPAUID3D11Device@@@Z 00418b3c     DeferredRenderer.obj
 0002:00001b44       __unwindtable$??0DeferredRendererController@@QAE@PAVCFirstPersonCamera@@H@Z 00418b44     DeferredRenderer.obj
 0002:00001b4c       __ehfuncinfo$?DeviceCreated@DeferredRendererController@@UAEJPAUID3D11Device@@@Z 00418b4c     DeferredRenderer.obj
 0002:00001b70       __ehfuncinfo$??0DeferredRendererController@@QAE@PAVCFirstPersonCamera@@H@Z 00418b70     DeferredRenderer.obj
 0002:00001b94       __catchsym$?_Copy@?$basic_string@_WU?$char_traits@_W@std@@V?$allocator@_W@2@@std@@QAEXII@Z$5 00418b94     DeferredShadingMSAA.obj
 0002:00001ba4       __catchsym$?_Copy@?$basic_string@_WU?$char_traits@_W@std@@V?$allocator@_W@2@@std@@QAEXII@Z$4 00418ba4     DeferredShadingMSAA.obj
 0002:00001bb4       __unwindtable$?_Copy@?$basic_string@_WU?$char_traits@_W@std@@V?$allocator@_W@2@@std@@QAEXII@Z 00418bb4     DeferredShadingMSAA.obj
 0002:00001bd4       __ehfuncinfo$?_Copy@?$basic_string@_WU?$char_traits@_W@std@@V?$allocator@_W@2@@std@@QAEXII@Z 00418bd4     DeferredShadingMSAA.obj
 0002:00001bf8       __tryblocktable$?_Copy@?$basic_string@_WU?$char_traits@_W@std@@V?$allocator@_W@2@@std@@QAEXII@Z 00418bf8     DeferredShadingMSAA.obj
 0002:00001c20       __catchsym$?_Buynode0@?$_List_alloc@$0A@U?$_List_base_types@PAVIVisualController@@V?$allocator@PAVIVisualController@@@std@@@std@@@std@@QAEPAU?$_List_node@PAVIVisualController@@PAX@2@PAU32@0@Z$2 00418c20     DeferredShadingMSAA.obj
 0002:00001c30       __unwindtable$?_Buynode0@?$_List_alloc@$0A@U?$_List_base_types@PAVIVisualController@@V?$allocator@PAVIVisualController@@@std@@@std@@@std@@QAEPAU?$_List_node@PAVIVisualController@@PAX@2@PAU32@0@Z 00418c30     DeferredShadingMSAA.obj
 0002:00001c40       __tryblocktable$?_Buynode0@?$_List_alloc@$0A@U?$_List_base_types@PAVIVisualController@@V?$allocator@PAVIVisualController@@@std@@@std@@@std@@QAEPAU?$_List_node@PAVIVisualController@@PAX@2@PAU32@0@Z 00418c40     DeferredShadingMSAA.obj
 0002:00001c54       __ehfuncinfo$?_Buynode0@?$_List_alloc@$0A@U?$_List_base_types@PAVIVisualController@@V?$allocator@PAVIVisualController@@@std@@@std@@@std@@QAEPAU?$_List_node@PAVIVisualController@@PAX@2@PAU32@0@Z 00418c54     DeferredShadingMSAA.obj
 0002:00001c78       __catchsym$?_Buynode0@?$_List_alloc@$0A@U?$_List_base_types@NV?$allocator@N@std@@@std@@@std@@QAEPAU?$_List_node@NPAX@2@PAU32@0@Z$2 00418c78     DeferredShadingMSAA.obj
 0002:00001c88       __unwindtable$?_Buynode0@?$_List_alloc@$0A@U?$_List_base_types@NV?$allocator@N@std@@@std@@@std@@QAEPAU?$_List_node@NPAX@2@PAU32@0@Z 00418c88     DeferredShadingMSAA.obj
 0002:00001c98       __tryblocktable$?_Buynode0@?$_List_alloc@$0A@U?$_List_base_types@NV?$allocator@N@std@@@std@@@std@@QAEPAU?$_List_node@NPAX@2@PAU32@0@Z 00418c98     DeferredShadingMSAA.obj
 0002:00001cac       __ehfuncinfo$?_Buynode0@?$_List_alloc@$0A@U?$_List_base_types@NV?$allocator@N@std@@@std@@@std@@QAEPAU?$_List_node@NPAX@2@PAU32@0@Z 00418cac     DeferredShadingMSAA.obj
 0002:00001cd0       __unwindtable$??0DeviceManager@@QAE@XZ 00418cd0     DeferredShadingMSAA.obj
 0002:00001ce0       __ehfuncinfo$??0DeviceManager@@QAE@XZ 00418ce0     DeferredShadingMSAA.obj
 0002:00001d04       __unwindtable$??1DeviceManager@@UAE@XZ 00418d04     DeferredShadingMSAA.obj
 0002:00001d1c       __ehfuncinfo$??1DeviceManager@@UAE@XZ 00418d1c     DeferredShadingMSAA.obj
 0002:00001d40       __unwindtable$??$construct@NABN@?$allocator@U?$_List_node@NPAX@std@@@std@@QAEXPANABN@Z 00418d40     DeferredShadingMSAA.obj
 0002:00001d40       __unwindtable$??$construct@KAAK@?$allocator@K@std@@QAEXPAKAAK@Z 00418d40     DeferredShadingMSAA.obj
 0002:00001d40       __unwindtable$??$construct@PAVIVisualController@@ABQAV1@@?$allocator@U?$_List_node@PAVIVisualController@@PAX@std@@@std@@QAEXPAPAVIVisualController@@ABQAV2@@Z 00418d40     DeferredShadingMSAA.obj
 0002:00001d40       __unwindtable$?construct@?$allocator@UD3DXVECTOR3@@@std@@QAEXPAUD3DXVECTOR3@@@Z 00418d40     DeferredShadingMSAA.obj
 0002:00001d40       __unwindtable$??$construct@PAU?$_List_node@NPAX@std@@AAPAU12@@?$allocator@U?$_List_node@NPAX@std@@@std@@QAEXPAPAU?$_List_node@NPAX@1@AAPAU21@@Z 00418d40     DeferredShadingMSAA.obj
 0002:00001d40       __unwindtable$??$construct@HAAH@?$allocator@H@std@@QAEXPAHAAH@Z 00418d40     DeferredShadingMSAA.obj
 0002:00001d40       __unwindtable$??$construct@UD3DXVECTOR2@@U1@@?$allocator@UD3DXVECTOR2@@@std@@QAEXPAUD3DXVECTOR2@@$$QAU2@@Z 00418d40     DeferredShadingMSAA.obj
 0002:00001d40       __unwindtable$??$construct@UD3DXVECTOR3@@U1@@?$allocator@UD3DXVECTOR3@@@std@@QAEXPAUD3DXVECTOR3@@$$QAU2@@Z 00418d40     DeferredShadingMSAA.obj
 0002:00001d40       __unwindtable$??$construct@UVertexFace@?3??ComputeVertexNormals@ObjMeshDX@@AAEXXZ@U1?3??23@AAEXXZ@@?$allocator@UVertexFace@?3??ComputeVertexNormals@ObjMeshDX@@AAEXXZ@@std@@QAEXPAUVertexFace@?3??ComputeVertexNormals@ObjMeshDX@@AAEXXZ@$$QAU2?3??34@AAEXXZ@@Z 00418d40     DeferredShadingMSAA.obj
 0002:00001d40       __unwindtable$??$construct@PAUMaterial@@AAPAU1@@?$allocator@PAUMaterial@@@std@@QAEXPAPAUMaterial@@AAPAU2@@Z 00418d40     DeferredShadingMSAA.obj
 0002:00001d40       __unwindtable$??$construct@UMeshFace@@U1@@?$allocator@UMeshFace@@@std@@QAEXPAUMeshFace@@$$QAU2@@Z 00418d40     DeferredShadingMSAA.obj
 0002:00001d40       __unwindtable$??$construct@UMeshFace@@AAU1@@?$allocator@UMeshFace@@@std@@QAEXPAUMeshFace@@AAU2@@Z 00418d40     DeferredShadingMSAA.obj
 0002:00001d40       __unwindtable$??$construct@PAVObjMeshDX@@AAPAV1@@?$allocator@PAVObjMeshDX@@@std@@QAEXPAPAVObjMeshDX@@AAPAV2@@Z 00418d40     DeferredShadingMSAA.obj
 0002:00001d40       __unwindtable$??$construct@KK@?$allocator@K@std@@QAEXPAK$$QAK@Z 00418d40     DeferredShadingMSAA.obj
 0002:00001d40       __unwindtable$??$construct@PADAAPAD@?$allocator@D@std@@QAEXPAPADAAPAD@Z 00418d40     DeferredShadingMSAA.obj
 0002:00001d40       __unwindtable$??$construct@PAUCacheEntry@@PAU1@@?$allocator@PAUCacheEntry@@@std@@QAEXPAPAUCacheEntry@@$$QAPAU2@@Z 00418d40     DeferredShadingMSAA.obj
 0002:00001d40       __unwindtable$??$construct@PA_WAAPA_W@?$allocator@_W@std@@QAEXPAPA_WAAPA_W@Z 00418d40     DeferredShadingMSAA.obj
 0002:00001d40       __unwindtable$??$construct@PAU?$_List_node@PAVIVisualController@@PAX@std@@AAPAU12@@?$allocator@U?$_List_node@PAVIVisualController@@PAX@std@@@std@@QAEXPAPAU?$_List_node@PAVIVisualController@@PAX@1@AAPAU21@@Z 00418d40     DeferredShadingMSAA.obj
 0002:00001d40       __unwindtable$?construct@?$allocator@UVertexFace@?3??ComputeVertexNormals@ObjMeshDX@@AAEXXZ@@std@@QAEXPAUVertexFace@?3??ComputeVertexNormals@ObjMeshDX@@AAEXXZ@@Z 00418d40     DeferredShadingMSAA.obj
 0002:00001d48       __ehfuncinfo$??$construct@UMeshFace@@U1@@?$allocator@UMeshFace@@@std@@QAEXPAUMeshFace@@$$QAU2@@Z 00418d48     DeferredShadingMSAA.obj
 0002:00001d48       __ehfuncinfo$??$construct@HAAH@?$allocator@H@std@@QAEXPAHAAH@Z 00418d48     DeferredShadingMSAA.obj
 0002:00001d48       __ehfuncinfo$??$construct@UVertexFace@?3??ComputeVertexNormals@ObjMeshDX@@AAEXXZ@U1?3??23@AAEXXZ@@?$allocator@UVertexFace@?3??ComputeVertexNormals@ObjMeshDX@@AAEXXZ@@std@@QAEXPAUVertexFace@?3??ComputeVertexNormals@ObjMeshDX@@AAEXXZ@$$QAU2?3??34@AAEXXZ@@Z 00418d48     DeferredShadingMSAA.obj
 0002:00001d48       __ehfuncinfo$??$construct@NABN@?$allocator@U?$_List_node@NPAX@std@@@std@@QAEXPANABN@Z 00418d48     DeferredShadingMSAA.obj
 0002:00001d48       __ehfuncinfo$??$construct@PAVIVisualController@@ABQAV1@@?$allocator@U?$_List_node@PAVIVisualController@@PAX@std@@@std@@QAEXPAPAVIVisualController@@ABQAV2@@Z 00418d48     DeferredShadingMSAA.obj
 0002:00001d48       __ehfuncinfo$?construct@?$allocator@UD3DXVECTOR3@@@std@@QAEXPAUD3DXVECTOR3@@@Z 00418d48     DeferredShadingMSAA.obj
 0002:00001d48       __ehfuncinfo$?construct@?$allocator@UVertexFace@?3??ComputeVertexNormals@ObjMeshDX@@AAEXXZ@@std@@QAEXPAUVertexFace@?3??ComputeVertexNormals@ObjMeshDX@@AAEXXZ@@Z 00418d48     DeferredShadingMSAA.obj
 0002:00001d48       __ehfuncinfo$??$construct@PAUCacheEntry@@PAU1@@?$allocator@PAUCacheEntry@@@std@@QAEXPAPAUCacheEntry@@$$QAPAU2@@Z 00418d48     DeferredShadingMSAA.obj
 0002:00001d48       __ehfuncinfo$??$construct@PA_WAAPA_W@?$allocator@_W@std@@QAEXPAPA_WAAPA_W@Z 00418d48     DeferredShadingMSAA.obj
 0002:00001d48       __ehfuncinfo$??$construct@PAU?$_List_node@PAVIVisualController@@PAX@std@@AAPAU12@@?$allocator@U?$_List_node@PAVIVisualController@@PAX@std@@@std@@QAEXPAPAU?$_List_node@PAVIVisualController@@PAX@1@AAPAU21@@Z 00418d48     DeferredShadingMSAA.obj
 0002:00001d48       __ehfuncinfo$??$construct@KK@?$allocator@K@std@@QAEXPAK$$QAK@Z 00418d48     DeferredShadingMSAA.obj
 0002:00001d48       __ehfuncinfo$??$construct@PADAAPAD@?$allocator@D@std@@QAEXPAPADAAPAD@Z 00418d48     DeferredShadingMSAA.obj
 0002:00001d48       __ehfuncinfo$??$construct@KAAK@?$allocator@K@std@@QAEXPAKAAK@Z 00418d48     DeferredShadingMSAA.obj
 0002:00001d48       __ehfuncinfo$??$construct@UMeshFace@@AAU1@@?$allocator@UMeshFace@@@std@@QAEXPAUMeshFace@@AAU2@@Z 00418d48     DeferredShadingMSAA.obj
 0002:00001d48       __ehfuncinfo$??$construct@PAVObjMeshDX@@AAPAV1@@?$allocator@PAVObjMeshDX@@@std@@QAEXPAPAVObjMeshDX@@AAPAV2@@Z 00418d48     DeferredShadingMSAA.obj
 0002:00001d48       __ehfuncinfo$??$construct@PAUMaterial@@AAPAU1@@?$allocator@PAUMaterial@@@std@@QAEXPAPAUMaterial@@AAPAU2@@Z 00418d48     DeferredShadingMSAA.obj
 0002:00001d48       __ehfuncinfo$??$construct@UD3DXVECTOR3@@U1@@?$allocator@UD3DXVECTOR3@@@std@@QAEXPAUD3DXVECTOR3@@$$QAU2@@Z 00418d48     DeferredShadingMSAA.obj
 0002:00001d48       __ehfuncinfo$??$construct@UD3DXVECTOR2@@U1@@?$allocator@UD3DXVECTOR2@@@std@@QAEXPAUD3DXVECTOR2@@$$QAU2@@Z 00418d48     DeferredShadingMSAA.obj
 0002:00001d48       __ehfuncinfo$??$construct@PAU?$_List_node@NPAX@std@@AAPAU12@@?$allocator@U?$_List_node@NPAX@std@@@std@@QAEXPAPAU?$_List_node@NPAX@1@AAPAU21@@Z 00418d48     DeferredShadingMSAA.obj
 0002:00001d6c       __unwindtable$??0sentry@?$basic_istream@_WU?$char_traits@_W@std@@@std@@QAE@AAV12@_N@Z 00418d6c     ObjMeshDX.obj
 0002:00001d74       __ehfuncinfo$??0sentry@?$basic_istream@_WU?$char_traits@_W@std@@@std@@QAE@AAV12@_N@Z 00418d74     ObjMeshDX.obj
 0002:00001d98       __unwindtable$?LoadMaterialsFromMTL@ObjMeshDX@@AAEJPB_W@Z 00418d98     ObjMeshDX.obj
 0002:00001da0       __unwindtable$?ComputeVertexNormals@ObjMeshDX@@AAEXXZ 00418da0     ObjMeshDX.obj
 0002:00001db0       __ehfuncinfo$?ComputeVertexNormals@ObjMeshDX@@AAEXXZ 00418db0     ObjMeshDX.obj
 0002:00001dd4       __ehfuncinfo$?LoadMaterialsFromMTL@ObjMeshDX@@AAEJPB_W@Z 00418dd4     ObjMeshDX.obj
 0002:00001df8       __ehfuncinfo$?LoadGeometryFromOBJ@ObjMeshDX@@AAEJPB_W@Z 00418df8     ObjMeshDX.obj
 0002:00001e1c       __ehfuncinfo$??1ObjMeshDX@@QAE@XZ 00418e1c     ObjMeshDX.obj
 0002:00001e40       __ehfuncinfo$??0ObjMeshDX@@QAE@XZ 00418e40     ObjMeshDX.obj
 0002:00001e64       __unwindtable$?LoadGeometryFromOBJ@ObjMeshDX@@AAEJPB_W@Z 00418e64     ObjMeshDX.obj
 0002:00001e94       __unwindtable$??0ObjMeshDX@@QAE@XZ 00418e94     ObjMeshDX.obj
 0002:00001ec4       __unwindtable$??1ObjMeshDX@@QAE@XZ 00418ec4     ObjMeshDX.obj
 0002:00001efc       __catchsym$?_Reallocate@?$vector@PAUMaterial@@V?$allocator@PAUMaterial@@@std@@@std@@IAEXI@Z$2 00418efc     ObjMeshDX.obj
 0002:00001efc       __catchsym$?_Reallocate@?$vector@KV?$allocator@K@std@@@std@@IAEXI@Z$2 00418efc     ObjMeshDX.obj
 0002:00001efc       __catchsym$?_Reallocate@?$vector@PAVObjMeshDX@@V?$allocator@PAVObjMeshDX@@@std@@@std@@IAEXI@Z$2 00418efc     ObjMeshDX.obj
 0002:00001efc       __catchsym$?_Reallocate@?$vector@PAUCacheEntry@@V?$allocator@PAUCacheEntry@@@std@@@std@@IAEXI@Z$2 00418efc     ObjMeshDX.obj
 0002:00001efc       __catchsym$?_Reallocate@?$vector@HV?$allocator@H@std@@@std@@IAEXI@Z$2 00418efc     ObjMeshDX.obj
 0002:00001f0c       __unwindtable$?_Reallocate@?$vector@KV?$allocator@K@std@@@std@@IAEXI@Z 00418f0c     ObjMeshDX.obj
 0002:00001f0c       __unwindtable$?_Reallocate@?$vector@PAUMaterial@@V?$allocator@PAUMaterial@@@std@@@std@@IAEXI@Z 00418f0c     ObjMeshDX.obj
 0002:00001f0c       __unwindtable$?_Reallocate@?$vector@PAVObjMeshDX@@V?$allocator@PAVObjMeshDX@@@std@@@std@@IAEXI@Z 00418f0c     ObjMeshDX.obj
 0002:00001f0c       __unwindtable$?_Reallocate@?$vector@PAUCacheEntry@@V?$allocator@PAUCacheEntry@@@std@@@std@@IAEXI@Z 00418f0c     ObjMeshDX.obj
 0002:00001f0c       __unwindtable$?_Reallocate@?$vector@HV?$allocator@H@std@@@std@@IAEXI@Z 00418f0c     ObjMeshDX.obj
 0002:00001f1c       __tryblocktable$?_Reallocate@?$vector@PAUCacheEntry@@V?$allocator@PAUCacheEntry@@@std@@@std@@IAEXI@Z 00418f1c     ObjMeshDX.obj
 0002:00001f1c       __tryblocktable$?_Reallocate@?$vector@PAUMaterial@@V?$allocator@PAUMaterial@@@std@@@std@@IAEXI@Z 00418f1c     ObjMeshDX.obj
 0002:00001f1c       __tryblocktable$?_Reallocate@?$vector@KV?$allocator@K@std@@@std@@IAEXI@Z 00418f1c     ObjMeshDX.obj
 0002:00001f1c       __tryblocktable$?_Reallocate@?$vector@PAVObjMeshDX@@V?$allocator@PAVObjMeshDX@@@std@@@std@@IAEXI@Z 00418f1c     ObjMeshDX.obj
 0002:00001f1c       __tryblocktable$?_Reallocate@?$vector@HV?$allocator@H@std@@@std@@IAEXI@Z 00418f1c     ObjMeshDX.obj
 0002:00001f30       __ehfuncinfo$?_Reallocate@?$vector@PAUMaterial@@V?$allocator@PAUMaterial@@@std@@@std@@IAEXI@Z 00418f30     ObjMeshDX.obj
 0002:00001f30       __ehfuncinfo$?_Reallocate@?$vector@KV?$allocator@K@std@@@std@@IAEXI@Z 00418f30     ObjMeshDX.obj
 0002:00001f30       __ehfuncinfo$?_Reallocate@?$vector@PAUCacheEntry@@V?$allocator@PAUCacheEntry@@@std@@@std@@IAEXI@Z 00418f30     ObjMeshDX.obj
 0002:00001f30       __ehfuncinfo$?_Reallocate@?$vector@HV?$allocator@H@std@@@std@@IAEXI@Z 00418f30     ObjMeshDX.obj
 0002:00001f30       __ehfuncinfo$?_Reallocate@?$vector@PAVObjMeshDX@@V?$allocator@PAVObjMeshDX@@@std@@@std@@IAEXI@Z 00418f30     ObjMeshDX.obj
 0002:00001f54       __catchsym$?_Reallocate@?$vector@UMeshVertex@@V?$allocator@UMeshVertex@@@std@@@std@@IAEXI@Z$2 00418f54     ObjMeshDX.obj
 0002:00001f64       __unwindtable$?_Reallocate@?$vector@UMeshVertex@@V?$allocator@UMeshVertex@@@std@@@std@@IAEXI@Z 00418f64     ObjMeshDX.obj
 0002:00001f74       __tryblocktable$?_Reallocate@?$vector@UMeshVertex@@V?$allocator@UMeshVertex@@@std@@@std@@IAEXI@Z 00418f74     ObjMeshDX.obj
 0002:00001f88       __ehfuncinfo$?_Reallocate@?$vector@UMeshVertex@@V?$allocator@UMeshVertex@@@std@@@std@@IAEXI@Z 00418f88     ObjMeshDX.obj
 0002:00001fac       __catchsym$?_Reallocate@?$vector@UMeshFace@@V?$allocator@UMeshFace@@@std@@@std@@IAEXI@Z$2 00418fac     ObjMeshDX.obj
 0002:00001fbc       __unwindtable$?_Reallocate@?$vector@UMeshFace@@V?$allocator@UMeshFace@@@std@@@std@@IAEXI@Z 00418fbc     ObjMeshDX.obj
 0002:00001fcc       __tryblocktable$?_Reallocate@?$vector@UMeshFace@@V?$allocator@UMeshFace@@@std@@@std@@IAEXI@Z 00418fcc     ObjMeshDX.obj
 0002:00001fe0       __ehfuncinfo$?_Reallocate@?$vector@UMeshFace@@V?$allocator@UMeshFace@@@std@@@std@@IAEXI@Z 00418fe0     ObjMeshDX.obj
 0002:00002004       __catchsym$?resize@?$vector@UD3DXVECTOR3@@V?$allocator@UD3DXVECTOR3@@@std@@@std@@QAEXI@Z$2 00419004     ObjMeshDX.obj
 0002:00002014       __unwindtable$?resize@?$vector@UD3DXVECTOR3@@V?$allocator@UD3DXVECTOR3@@@std@@@std@@QAEXI@Z 00419014     ObjMeshDX.obj
 0002:00002024       __tryblocktable$?resize@?$vector@UD3DXVECTOR3@@V?$allocator@UD3DXVECTOR3@@@std@@@std@@QAEXI@Z 00419024     ObjMeshDX.obj
 0002:00002038       __ehfuncinfo$?resize@?$vector@UD3DXVECTOR3@@V?$allocator@UD3DXVECTOR3@@@std@@@std@@QAEXI@Z 00419038     ObjMeshDX.obj
 0002:0000205c       __catchsym$?_Reallocate@?$vector@UD3DXVECTOR3@@V?$allocator@UD3DXVECTOR3@@@std@@@std@@IAEXI@Z$2 0041905c     ObjMeshDX.obj
 0002:0000206c       __unwindtable$?_Reallocate@?$vector@UD3DXVECTOR3@@V?$allocator@UD3DXVECTOR3@@@std@@@std@@IAEXI@Z 0041906c     ObjMeshDX.obj
 0002:0000207c       __tryblocktable$?_Reallocate@?$vector@UD3DXVECTOR3@@V?$allocator@UD3DXVECTOR3@@@std@@@std@@IAEXI@Z 0041907c     ObjMeshDX.obj
 0002:00002090       __ehfuncinfo$?_Reallocate@?$vector@UD3DXVECTOR3@@V?$allocator@UD3DXVECTOR3@@@std@@@std@@IAEXI@Z 00419090     ObjMeshDX.obj
 0002:000020b4       __catchsym$?_Reallocate@?$vector@UD3DXVECTOR2@@V?$allocator@UD3DXVECTOR2@@@std@@@std@@IAEXI@Z$2 004190b4     ObjMeshDX.obj
 0002:000020c4       __unwindtable$?_Reallocate@?$vector@UD3DXVECTOR2@@V?$allocator@UD3DXVECTOR2@@@std@@@std@@IAEXI@Z 004190c4     ObjMeshDX.obj
 0002:000020d4       __tryblocktable$?_Reallocate@?$vector@UD3DXVECTOR2@@V?$allocator@UD3DXVECTOR2@@@std@@@std@@IAEXI@Z 004190d4     ObjMeshDX.obj
 0002:000020e8       __ehfuncinfo$?_Reallocate@?$vector@UD3DXVECTOR2@@V?$allocator@UD3DXVECTOR2@@@std@@@std@@IAEXI@Z 004190e8     ObjMeshDX.obj
 0002:0000210c       __unwindtable$??0?$basic_ifstream@_WU?$char_traits@_W@std@@@std@@QAE@PB_WHH@Z 0041910c     ObjMeshDX.obj
 0002:00002124       __ehfuncinfo$??0?$basic_ifstream@_WU?$char_traits@_W@std@@@std@@QAE@PB_WHH@Z 00419124     ObjMeshDX.obj
 0002:00002148       __unwindtable$??0?$basic_filebuf@_WU?$char_traits@_W@std@@@std@@QAE@PAU_iobuf@@@Z 00419148     ObjMeshDX.obj
 0002:00002150       __ehfuncinfo$??0?$basic_filebuf@_WU?$char_traits@_W@std@@@std@@QAE@PAU_iobuf@@@Z 00419150     ObjMeshDX.obj
 0002:00002174       __unwindtable$?open@?$basic_filebuf@_WU?$char_traits@_W@std@@@std@@QAEPAV12@PB_WHH@Z 00419174     ObjMeshDX.obj
 0002:0000217c       __ehfuncinfo$?open@?$basic_filebuf@_WU?$char_traits@_W@std@@@std@@QAEPAV12@PB_WHH@Z 0041917c     ObjMeshDX.obj
 0002:000021a0       __unwindtable$?overflow@?$basic_filebuf@_WU?$char_traits@_W@std@@@std@@MAEGG@Z 004191a0     ObjMeshDX.obj
 0002:000021a8       __ehfuncinfo$?overflow@?$basic_filebuf@_WU?$char_traits@_W@std@@@std@@MAEGG@Z 004191a8     ObjMeshDX.obj
 0002:000021cc       __unwindtable$?uflow@?$basic_filebuf@_WU?$char_traits@_W@std@@@std@@MAEGXZ 004191cc     ObjMeshDX.obj
 0002:000021d4       __ehfuncinfo$?uflow@?$basic_filebuf@_WU?$char_traits@_W@std@@@std@@MAEGXZ 004191d4     ObjMeshDX.obj
 0002:000021f8       __unwindtable$?_Endwrite@?$basic_filebuf@_WU?$char_traits@_W@std@@@std@@IAE_NXZ 004191f8     ObjMeshDX.obj
 0002:00002200       __ehfuncinfo$?_Endwrite@?$basic_filebuf@_WU?$char_traits@_W@std@@@std@@IAE_NXZ 00419200     ObjMeshDX.obj
 0002:00002224       __catchsym$??$?5_WU?$char_traits@_W@std@@@std@@YAAAV?$basic_istream@_WU?$char_traits@_W@std@@@0@AAV10@PA_W@Z$4 00419224     ObjMeshDX.obj
 0002:00002234       __tryblocktable$??$?5_WU?$char_traits@_W@std@@@std@@YAAAV?$basic_istream@_WU?$char_traits@_W@std@@@0@AAV10@PA_W@Z 00419234     ObjMeshDX.obj
 0002:00002248       __unwindtable$??$?5_WU?$char_traits@_W@std@@@std@@YAAAV?$basic_istream@_WU?$char_traits@_W@std@@@0@AAV10@PA_W@Z 00419248     ObjMeshDX.obj
 0002:00002268       __ehfuncinfo$??$?5_WU?$char_traits@_W@std@@@std@@YAAAV?$basic_istream@_WU?$char_traits@_W@std@@@0@AAV10@PA_W@Z 00419268     ObjMeshDX.obj
 0002:0000228c       __catchsym$??0?$vector@HV?$allocator@H@std@@@std@@QAE@ABV01@@Z$2 0041928c     ObjMeshDX.obj
 0002:0000229c       __unwindtable$??0?$vector@HV?$allocator@H@std@@@std@@QAE@ABV01@@Z 0041929c     ObjMeshDX.obj
 0002:000022ac       __tryblocktable$??0?$vector@HV?$allocator@H@std@@@std@@QAE@ABV01@@Z 004192ac     ObjMeshDX.obj
 0002:000022c0       __ehfuncinfo$??0?$vector@HV?$allocator@H@std@@@std@@QAE@ABV01@@Z 004192c0     ObjMeshDX.obj
 0002:000022e4       __catchsym$?resize@?$vector@UVertexFace@?3??ComputeVertexNormals@ObjMeshDX@@AAEXXZ@V?$allocator@UVertexFace@?3??ComputeVertexNormals@ObjMeshDX@@AAEXXZ@@std@@@std@@QAEXI@Z$2 004192e4     ObjMeshDX.obj
 0002:000022f4       __unwindtable$?resize@?$vector@UVertexFace@?3??ComputeVertexNormals@ObjMeshDX@@AAEXXZ@V?$allocator@UVertexFace@?3??ComputeVertexNormals@ObjMeshDX@@AAEXXZ@@std@@@std@@QAEXI@Z 004192f4     ObjMeshDX.obj
 0002:00002304       __tryblocktable$?resize@?$vector@UVertexFace@?3??ComputeVertexNormals@ObjMeshDX@@AAEXXZ@V?$allocator@UVertexFace@?3??ComputeVertexNormals@ObjMeshDX@@AAEXXZ@@std@@@std@@QAEXI@Z 00419304     ObjMeshDX.obj
 0002:00002318       __ehfuncinfo$?resize@?$vector@UVertexFace@?3??ComputeVertexNormals@ObjMeshDX@@AAEXXZ@V?$allocator@UVertexFace@?3??ComputeVertexNormals@ObjMeshDX@@AAEXXZ@@std@@@std@@QAEXI@Z 00419318     ObjMeshDX.obj
 0002:0000233c       __catchsym$?_Reallocate@?$vector@UVertexFace@?3??ComputeVertexNormals@ObjMeshDX@@AAEXXZ@V?$allocator@UVertexFace@?3??ComputeVertexNormals@ObjMeshDX@@AAEXXZ@@std@@@std@@IAEXI@Z$2 0041933c     ObjMeshDX.obj
 0002:0000234c       __unwindtable$?_Reallocate@?$vector@UVertexFace@?3??ComputeVertexNormals@ObjMeshDX@@AAEXXZ@V?$allocator@UVertexFace@?3??ComputeVertexNormals@ObjMeshDX@@AAEXXZ@@std@@@std@@IAEXI@Z 0041934c     ObjMeshDX.obj
 0002:0000235c       __tryblocktable$?_Reallocate@?$vector@UVertexFace@?3??ComputeVertexNormals@ObjMeshDX@@AAEXXZ@V?$allocator@UVertexFace@?3??ComputeVertexNormals@ObjMeshDX@@AAEXXZ@@std@@@std@@IAEXI@Z 0041935c     ObjMeshDX.obj
 0002:00002370       __ehfuncinfo$?_Reallocate@?$vector@UVertexFace@?3??ComputeVertexNormals@ObjMeshDX@@AAEXXZ@V?$allocator@UVertexFace@?3??ComputeVertexNormals@ObjMeshDX@@AAEXXZ@@std@@@std@@IAEXI@Z 00419370     ObjMeshDX.obj
 0002:00002394       __unwindtable$??$use_facet@V?$ctype@_W@std@@@std@@YAABV?$ctype@_W@0@ABVlocale@0@@Z 00419394     ObjMeshDX.obj
 0002:00002394       __unwindtable$??$use_facet@V?$codecvt@_WDH@std@@@std@@YAABV?$codecvt@_WDH@0@ABVlocale@0@@Z 00419394     ObjMeshDX.obj
 0002:0000239c       __ehfuncinfo$??$use_facet@V?$codecvt@_WDH@std@@@std@@YAABV?$codecvt@_WDH@0@ABVlocale@0@@Z 0041939c     ObjMeshDX.obj
 0002:0000239c       __ehfuncinfo$??$use_facet@V?$ctype@_W@std@@@std@@YAABV?$ctype@_W@0@ABVlocale@0@@Z 0041939c     ObjMeshDX.obj
 0002:000023c0       __catchsym$??$_Uninit_def_fill_n@PAUD3DXVECTOR3@@IV?$allocator@UD3DXVECTOR3@@@std@@U1@@std@@YAXPAUD3DXVECTOR3@@IAAU?$_Wrap_alloc@V?$allocator@UD3DXVECTOR3@@@std@@@0@0U_Nonscalar_ptr_iterator_tag@0@@Z$2 004193c0     ObjMeshDX.obj
 0002:000023d0       __unwindtable$??$_Uninit_def_fill_n@PAUD3DXVECTOR3@@IV?$allocator@UD3DXVECTOR3@@@std@@U1@@std@@YAXPAUD3DXVECTOR3@@IAAU?$_Wrap_alloc@V?$allocator@UD3DXVECTOR3@@@std@@@0@0U_Nonscalar_ptr_iterator_tag@0@@Z 004193d0     ObjMeshDX.obj
 0002:000023e0       __tryblocktable$??$_Uninit_def_fill_n@PAUD3DXVECTOR3@@IV?$allocator@UD3DXVECTOR3@@@std@@U1@@std@@YAXPAUD3DXVECTOR3@@IAAU?$_Wrap_alloc@V?$allocator@UD3DXVECTOR3@@@std@@@0@0U_Nonscalar_ptr_iterator_tag@0@@Z 004193e0     ObjMeshDX.obj
 0002:000023f4       __ehfuncinfo$??$_Uninit_def_fill_n@PAUD3DXVECTOR3@@IV?$allocator@UD3DXVECTOR3@@@std@@U1@@std@@YAXPAUD3DXVECTOR3@@IAAU?$_Wrap_alloc@V?$allocator@UD3DXVECTOR3@@@std@@@0@0U_Nonscalar_ptr_iterator_tag@0@@Z 004193f4     ObjMeshDX.obj
 0002:00002418       __catchsym$??$_Uninit_def_fill_n@PAUVertexFace@?3??ComputeVertexNormals@ObjMeshDX@@AAEXXZ@IV?$allocator@UVertexFace@?3??ComputeVertexNormals@ObjMeshDX@@AAEXXZ@@std@@U1?3??23@AAEXXZ@@std@@YAXPAUVertexFace@?3??ComputeVertexNormals@ObjMeshDX@@AAEXXZ@IAAU?$_Wrap_alloc@V?$allocator@UVertexFace@?3??ComputeVertexNormals@ObjMeshDX@@AAEXXZ@@std@@@0@0U_Nonscalar_ptr_iterator_tag@0@@Z$2 00419418     ObjMeshDX.obj
 0002:00002428       __unwindtable$??$_Uninit_def_fill_n@PAUVertexFace@?3??ComputeVertexNormals@ObjMeshDX@@AAEXXZ@IV?$allocator@UVertexFace@?3??ComputeVertexNormals@ObjMeshDX@@AAEXXZ@@std@@U1?3??23@AAEXXZ@@std@@YAXPAUVertexFace@?3??ComputeVertexNormals@ObjMeshDX@@AAEXXZ@IAAU?$_Wrap_alloc@V?$allocator@UVertexFace@?3??ComputeVertexNormals@ObjMeshDX@@AAEXXZ@@std@@@0@0U_Nonscalar_ptr_iterator_tag@0@@Z 00419428     ObjMeshDX.obj
 0002:00002438       __tryblocktable$??$_Uninit_def_fill_n@PAUVertexFace@?3??ComputeVertexNormals@ObjMeshDX@@AAEXXZ@IV?$allocator@UVertexFace@?3??ComputeVertexNormals@ObjMeshDX@@AAEXXZ@@std@@U1?3??23@AAEXXZ@@std@@YAXPAUVertexFace@?3??ComputeVertexNormals@ObjMeshDX@@AAEXXZ@IAAU?$_Wrap_alloc@V?$allocator@UVertexFace@?3??ComputeVertexNormals@ObjMeshDX@@AAEXXZ@@std@@@0@0U_Nonscalar_ptr_iterator_tag@0@@Z 00419438     ObjMeshDX.obj
 0002:0000244c       __ehfuncinfo$??$_Uninit_def_fill_n@PAUVertexFace@?3??ComputeVertexNormals@ObjMeshDX@@AAEXXZ@IV?$allocator@UVertexFace@?3??ComputeVertexNormals@ObjMeshDX@@AAEXXZ@@std@@U1?3??23@AAEXXZ@@std@@YAXPAUVertexFace@?3??ComputeVertexNormals@ObjMeshDX@@AAEXXZ@IAAU?$_Wrap_alloc@V?$allocator@UVertexFace@?3??ComputeVertexNormals@ObjMeshDX@@AAEXXZ@@std@@@0@0U_Nonscalar_ptr_iterator_tag@0@@Z 0041944c     ObjMeshDX.obj
 0002:00002470       __catchsym$??$_Uninit_move@PAUMeshVertex@@PAU1@V?$allocator@UMeshVertex@@@std@@U1@@std@@YAPAUMeshVertex@@PAU1@00AAU?$_Wrap_alloc@V?$allocator@UMeshVertex@@@std@@@0@0U_Nonscalar_ptr_iterator_tag@0@@Z$2 00419470     ObjMeshDX.obj
 0002:00002480       __unwindtable$??$_Uninit_move@PAUMeshVertex@@PAU1@V?$allocator@UMeshVertex@@@std@@U1@@std@@YAPAUMeshVertex@@PAU1@00AAU?$_Wrap_alloc@V?$allocator@UMeshVertex@@@std@@@0@0U_Nonscalar_ptr_iterator_tag@0@@Z 00419480     ObjMeshDX.obj
 0002:00002490       __tryblocktable$??$_Uninit_move@PAUMeshVertex@@PAU1@V?$allocator@UMeshVertex@@@std@@U1@@std@@YAPAUMeshVertex@@PAU1@00AAU?$_Wrap_alloc@V?$allocator@UMeshVertex@@@std@@@0@0U_Nonscalar_ptr_iterator_tag@0@@Z 00419490     ObjMeshDX.obj
 0002:000024a4       __ehfuncinfo$??$_Uninit_move@PAUMeshVertex@@PAU1@V?$allocator@UMeshVertex@@@std@@U1@@std@@YAPAUMeshVertex@@PAU1@00AAU?$_Wrap_alloc@V?$allocator@UMeshVertex@@@std@@@0@0U_Nonscalar_ptr_iterator_tag@0@@Z 004194a4     ObjMeshDX.obj
 0002:000024c8       __catchsym$??$_Uninit_move@PAUMeshFace@@PAU1@V?$allocator@UMeshFace@@@std@@U1@@std@@YAPAUMeshFace@@PAU1@00AAU?$_Wrap_alloc@V?$allocator@UMeshFace@@@std@@@0@0U_Nonscalar_ptr_iterator_tag@0@@Z$2 004194c8     ObjMeshDX.obj
 0002:000024d8       __unwindtable$??$_Uninit_move@PAUMeshFace@@PAU1@V?$allocator@UMeshFace@@@std@@U1@@std@@YAPAUMeshFace@@PAU1@00AAU?$_Wrap_alloc@V?$allocator@UMeshFace@@@std@@@0@0U_Nonscalar_ptr_iterator_tag@0@@Z 004194d8     ObjMeshDX.obj
 0002:000024e8       __tryblocktable$??$_Uninit_move@PAUMeshFace@@PAU1@V?$allocator@UMeshFace@@@std@@U1@@std@@YAPAUMeshFace@@PAU1@00AAU?$_Wrap_alloc@V?$allocator@UMeshFace@@@std@@@0@0U_Nonscalar_ptr_iterator_tag@0@@Z 004194e8     ObjMeshDX.obj
 0002:000024fc       __ehfuncinfo$??$_Uninit_move@PAUMeshFace@@PAU1@V?$allocator@UMeshFace@@@std@@U1@@std@@YAPAUMeshFace@@PAU1@00AAU?$_Wrap_alloc@V?$allocator@UMeshFace@@@std@@@0@0U_Nonscalar_ptr_iterator_tag@0@@Z 004194fc     ObjMeshDX.obj
 0002:00002520       __catchsym$??$_Uninit_move@PAUD3DXVECTOR3@@PAU1@V?$allocator@UD3DXVECTOR3@@@std@@U1@@std@@YAPAUD3DXVECTOR3@@PAU1@00AAU?$_Wrap_alloc@V?$allocator@UD3DXVECTOR3@@@std@@@0@0U_Nonscalar_ptr_iterator_tag@0@@Z$2 00419520     ObjMeshDX.obj
 0002:00002530       __unwindtable$??$_Uninit_move@PAUD3DXVECTOR3@@PAU1@V?$allocator@UD3DXVECTOR3@@@std@@U1@@std@@YAPAUD3DXVECTOR3@@PAU1@00AAU?$_Wrap_alloc@V?$allocator@UD3DXVECTOR3@@@std@@@0@0U_Nonscalar_ptr_iterator_tag@0@@Z 00419530     ObjMeshDX.obj
 0002:00002540       __tryblocktable$??$_Uninit_move@PAUD3DXVECTOR3@@PAU1@V?$allocator@UD3DXVECTOR3@@@std@@U1@@std@@YAPAUD3DXVECTOR3@@PAU1@00AAU?$_Wrap_alloc@V?$allocator@UD3DXVECTOR3@@@std@@@0@0U_Nonscalar_ptr_iterator_tag@0@@Z 00419540     ObjMeshDX.obj
 0002:00002554       __ehfuncinfo$??$_Uninit_move@PAUD3DXVECTOR3@@PAU1@V?$allocator@UD3DXVECTOR3@@@std@@U1@@std@@YAPAUD3DXVECTOR3@@PAU1@00AAU?$_Wrap_alloc@V?$allocator@UD3DXVECTOR3@@@std@@@0@0U_Nonscalar_ptr_iterator_tag@0@@Z 00419554     ObjMeshDX.obj
 0002:00002578       __catchsym$??$_Uninit_move@PAUD3DXVECTOR2@@PAU1@V?$allocator@UD3DXVECTOR2@@@std@@U1@@std@@YAPAUD3DXVECTOR2@@PAU1@00AAU?$_Wrap_alloc@V?$allocator@UD3DXVECTOR2@@@std@@@0@0U_Nonscalar_ptr_iterator_tag@0@@Z$2 00419578     ObjMeshDX.obj
 0002:00002588       __unwindtable$??$_Uninit_move@PAUD3DXVECTOR2@@PAU1@V?$allocator@UD3DXVECTOR2@@@std@@U1@@std@@YAPAUD3DXVECTOR2@@PAU1@00AAU?$_Wrap_alloc@V?$allocator@UD3DXVECTOR2@@@std@@@0@0U_Nonscalar_ptr_iterator_tag@0@@Z 00419588     ObjMeshDX.obj
 0002:00002598       __tryblocktable$??$_Uninit_move@PAUD3DXVECTOR2@@PAU1@V?$allocator@UD3DXVECTOR2@@@std@@U1@@std@@YAPAUD3DXVECTOR2@@PAU1@00AAU?$_Wrap_alloc@V?$allocator@UD3DXVECTOR2@@@std@@@0@0U_Nonscalar_ptr_iterator_tag@0@@Z 00419598     ObjMeshDX.obj
 0002:000025ac       __ehfuncinfo$??$_Uninit_move@PAUD3DXVECTOR2@@PAU1@V?$allocator@UD3DXVECTOR2@@@std@@U1@@std@@YAPAUD3DXVECTOR2@@PAU1@00AAU?$_Wrap_alloc@V?$allocator@UD3DXVECTOR2@@@std@@@0@0U_Nonscalar_ptr_iterator_tag@0@@Z 004195ac     ObjMeshDX.obj
 0002:000025d0       __catchsym$??$_Uninit_move@PAUVertexFace@?3??ComputeVertexNormals@ObjMeshDX@@AAEXXZ@PAU1?3??23@AAEXXZ@V?$allocator@UVertexFace@?3??ComputeVertexNormals@ObjMeshDX@@AAEXXZ@@std@@U1?3??23@AAEXXZ@@std@@YAPAUVertexFace@?3??ComputeVertexNormals@ObjMeshDX@@AAEXXZ@PAU1?3??23@AAEXXZ@00AAU?$_Wrap_alloc@V?$allocator@UVertexFace@?3??ComputeVertexNormals@ObjMeshDX@@AAEXXZ@@std@@@0@0U_Nonscalar_ptr_iterator_tag@0@@Z$2 004195d0     ObjMeshDX.obj
 0002:000025e0       __unwindtable$??$_Uninit_move@PAUVertexFace@?3??ComputeVertexNormals@ObjMeshDX@@AAEXXZ@PAU1?3??23@AAEXXZ@V?$allocator@UVertexFace@?3??ComputeVertexNormals@ObjMeshDX@@AAEXXZ@@std@@U1?3??23@AAEXXZ@@std@@YAPAUVertexFace@?3??ComputeVertexNormals@ObjMeshDX@@AAEXXZ@PAU1?3??23@AAEXXZ@00AAU?$_Wrap_alloc@V?$allocator@UVertexFace@?3??ComputeVertexNormals@ObjMeshDX@@AAEXXZ@@std@@@0@0U_Nonscalar_ptr_iterator_tag@0@@Z 004195e0     ObjMeshDX.obj
 0002:000025f0       __tryblocktable$??$_Uninit_move@PAUVertexFace@?3??ComputeVertexNormals@ObjMeshDX@@AAEXXZ@PAU1?3??23@AAEXXZ@V?$allocator@UVertexFace@?3??ComputeVertexNormals@ObjMeshDX@@AAEXXZ@@std@@U1?3??23@AAEXXZ@@std@@YAPAUVertexFace@?3??ComputeVertexNormals@ObjMeshDX@@AAEXXZ@PAU1?3??23@AAEXXZ@00AAU?$_Wrap_alloc@V?$allocator@UVertexFace@?3??ComputeVertexNormals@ObjMeshDX@@AAEXXZ@@std@@@0@0U_Nonscalar_ptr_iterator_tag@0@@Z 004195f0     ObjMeshDX.obj
 0002:00002604       __ehfuncinfo$??$_Uninit_move@PAUVertexFace@?3??ComputeVertexNormals@ObjMeshDX@@AAEXXZ@PAU1?3??23@AAEXXZ@V?$allocator@UVertexFace@?3??ComputeVertexNormals@ObjMeshDX@@AAEXXZ@@std@@U1?3??23@AAEXXZ@@std@@YAPAUVertexFace@?3??ComputeVertexNormals@ObjMeshDX@@AAEXXZ@PAU1?3??23@AAEXXZ@00AAU?$_Wrap_alloc@V?$allocator@UVertexFace@?3??ComputeVertexNormals@ObjMeshDX@@AAEXXZ@@std@@@0@0U_Nonscalar_ptr_iterator_tag@0@@Z 00419604     ObjMeshDX.obj
 0002:00002628       __unwindtable$??$construct@UMeshVertex@@AAU1@@?$allocator@UMeshVertex@@@std@@QAEXPAUMeshVertex@@AAU2@@Z 00419628     ObjMeshDX.obj
 0002:00002628       __unwindtable$??$construct@UMeshVertex@@U1@@?$allocator@UMeshVertex@@@std@@QAEXPAUMeshVertex@@$$QAU2@@Z 00419628     ObjMeshDX.obj
 0002:00002630       __ehfuncinfo$??$construct@UMeshVertex@@AAU1@@?$allocator@UMeshVertex@@@std@@QAEXPAUMeshVertex@@AAU2@@Z 00419630     ObjMeshDX.obj
 0002:00002630       __ehfuncinfo$??$construct@UMeshVertex@@U1@@?$allocator@UMeshVertex@@@std@@QAEXPAUMeshVertex@@$$QAU2@@Z 00419630     ObjMeshDX.obj
 0002:000026a8       __catchsym$??$_Buynode@ABQAVIVisualController@@@?$_List_buy@PAVIVisualController@@V?$allocator@PAVIVisualController@@@std@@@std@@QAEPAU?$_List_node@PAVIVisualController@@PAX@1@PAU21@0ABQAVIVisualController@@@Z$2 004196a8     nvidiautilsDEBUG:DeviceManager.obj
 0002:000026b8       __unwindtable$??$_Buynode@ABQAVIVisualController@@@?$_List_buy@PAVIVisualController@@V?$allocator@PAVIVisualController@@@std@@@std@@QAEPAU?$_List_node@PAVIVisualController@@PAX@1@PAU21@0ABQAVIVisualController@@@Z 004196b8     nvidiautilsDEBUG:DeviceManager.obj
 0002:000026c8       __tryblocktable$??$_Buynode@ABQAVIVisualController@@@?$_List_buy@PAVIVisualController@@V?$allocator@PAVIVisualController@@@std@@@std@@QAEPAU?$_List_node@PAVIVisualController@@PAX@1@PAU21@0ABQAVIVisualController@@@Z 004196c8     nvidiautilsDEBUG:DeviceManager.obj
 0002:000026dc       __ehfuncinfo$??$_Buynode@ABQAVIVisualController@@@?$_List_buy@PAVIVisualController@@V?$allocator@PAVIVisualController@@@std@@@std@@QAEPAU?$_List_node@PAVIVisualController@@PAX@1@PAU21@0ABQAVIVisualController@@@Z 004196dc     nvidiautilsDEBUG:DeviceManager.obj
 0002:00002700       __catchsym$??$_Buynode@ABN@?$_List_buy@NV?$allocator@N@std@@@std@@QAEPAU?$_List_node@NPAX@1@PAU21@0ABN@Z$2 00419700     nvidiautilsDEBUG:DeviceManager.obj
 0002:00002710       __unwindtable$??$_Buynode@ABN@?$_List_buy@NV?$allocator@N@std@@@std@@QAEPAU?$_List_node@NPAX@1@PAU21@0ABN@Z 00419710     nvidiautilsDEBUG:DeviceManager.obj
 0002:00002720       __tryblocktable$??$_Buynode@ABN@?$_List_buy@NV?$allocator@N@std@@@std@@QAEPAU?$_List_node@NPAX@1@PAU21@0ABN@Z 00419720     nvidiautilsDEBUG:DeviceManager.obj
 0002:00002734       __ehfuncinfo$??$_Buynode@ABN@?$_List_buy@NV?$allocator@N@std@@@std@@QAEPAU?$_List_node@NPAX@1@PAU21@0ABN@Z 00419734     nvidiautilsDEBUG:DeviceManager.obj
 0002:00002758       __unwindtable$?_Facet_Register@std@@YAXPAV_Facet_base@1@@Z 00419758     msvcprtd:locale0_implib.obj
 0002:00002760       __ehfuncinfo$?_Facet_Register@std@@YAXPAV_Facet_base@1@@Z 00419760     msvcprtd:locale0_implib.obj
 0002:00002788       __sehtable$__onexit        00419788     MSVCRTD:atonexit.obj
 0002:000027a8       __sehtable$___tmainCRTStartup 004197a8     MSVCRTD:wcrtexew.obj
 0002:000027c8       __sehtable$??_M@YGXPAXIHP6EX0@Z@Z 004197c8     MSVCRTD:ehvecdtr.obj
 0002:000027e8       __sehtable$?__ArrayUnwind@@YGXPAXIHP6EX0@Z@Z 004197e8     MSVCRTD:ehvecdtr.obj
 0002:00002808       __sehtable$__IsNonwritableInCurrentImage 00419808     MSVCRTD:pesect.obj
 0002:00002caa       .idata$6                   00419caa     d3dx11:d3dx11_43.dll
 0002:00002d20       .idata$6                   00419d20     d3dx9:d3dx9_43.dll
 0002:00002d44       .idata$6                   00419d44     kernel32:KERNEL32.dll
 0002:00002d6e       .idata$6                   00419d6e     user32:USER32.dll
 0002:000039de       .idata$6                   0041a9de     msvcprtd:MSVCP120D.dll
 0002:00003b40       .idata$6                   0041ab40     AntTweakBar:AntTweakBar.dll
 0002:00003d54       .idata$6                   0041ad54     MSVCRTD:MSVCR120D.dll
 0002:00003f9a       .idata$6                   0041af9a     vld:vld_x86.dll
 0002:00003fa6       .idata$6                   0041afa6     xinput:XINPUT1_3.dll
 0002:00003fd4       .idata$6                   0041afd4     d3d11:d3d11.dll
 0003:00000000       _g_bRenderHUD              0041c000     DeferredShadingMSAA.obj
 0003:00000001       _g_bAdaptiveShading        0041c001     DeferredShadingMSAA.obj
 0003:00000002       _g_bSeperateComplexPass    0041c002     DeferredShadingMSAA.obj
 0003:00000004       _g_fCameraClipNear         0041c004     DeferredShadingMSAA.obj
 0003:00000008       _g_fCameraClipFar          0041c008     DeferredShadingMSAA.obj
 0003:00000010       _g_bBRDF                   0041c010     DeferredShadingMSAA.obj
 0003:00000388       _allocator_arg             0041c388     DeferredRenderer.obj
 0003:00000389       _piecewise_construct       0041c389     DeferredRenderer.obj
 0003:000003a4       _g_bDrawComplexPixels      0041c3a4     DeferredShadingMSAA.obj
 0003:000003a5       _g_bUsePerSamplePixelShader 0041c3a5     DeferredShadingMSAA.obj
 0003:000003a6       _allocator_arg             0041c3a6     DeferredShadingMSAA.obj
 0003:000003a7       _piecewise_construct       0041c3a7     DeferredShadingMSAA.obj
 0003:00000570       _allocator_arg             0041c570     ObjMeshDX.obj
 0003:00000571       _piecewise_construct       0041c571     ObjMeshDX.obj
 0003:00000584       _allocator_arg             0041c584     nvidiautilsDEBUG:DeviceManager.obj
 0003:00000585       _piecewise_construct       0041c585     nvidiautilsDEBUG:DeviceManager.obj
 0003:00000588       __Fac_head                 0041c588     msvcprtd:locale0_implib.obj
 0003:0000058c       _allocator_arg             0041c58c     msvcprtd:locale0_implib.obj
 0003:0000058d       _piecewise_construct       0041c58d     msvcprtd:locale0_implib.obj
 0003:0000058e       __Fac_tidy_reg             0041c58e     msvcprtd:locale0_implib.obj
 0003:00000590       _has_cctor                 0041c590     MSVCRTD:wcrtexew.obj
 0003:00000594       _mainret                   0041c594     MSVCRTD:wcrtexew.obj
 0003:00000598       _managedapp                0041c598     MSVCRTD:wcrtexew.obj
 0003:0000059c       _argc                      0041c59c     MSVCRTD:wcrtexew.obj
 0003:000005a0       _argv                      0041c5a0     MSVCRTD:wcrtexew.obj
 0003:000005a4       _envp                      0041c5a4     MSVCRTD:wcrtexew.obj
 0003:000005a8       _argret                    0041c5a8     MSVCRTD:wcrtexew.obj
 0003:000005ac       _startinfo                 0041c5ac     MSVCRTD:wcrtexew.obj
 0003:000005b0       _GS_ExceptionRecord        0041c5b0     MSVCRTD:gs_report.obj
 0003:00000600       _GS_ContextRecord          0041c600     MSVCRTD:gs_report.obj
 0003:000008cc       _DebuggerWasPresent        0041c8cc     MSVCRTD:gs_report.obj
